(dp0
Vmodscan
p1
(dp2
VRemoved Entries
p3
(lp4
V0x0000fa8002e22730 spsys.sys            0xfffff88002d16000            0x71000 
p5
asVAdded Entries
p6
(lp7
V0x0000fa8002e22730 spsys.sys            0xfffff88002d16000            0x71000 \u005cSystemRoot\u005csystem32\u005cdrivers\u005cspsys.sys
p8
assVnetscan
p9
(dp10
VRemoved Entries
p11
(lp12
V0x3e62a270 UDPv6    fe80::193b:8aa5:6658:a50:546   *:*                                   704      svchost.exe    2015-08-15 20:12:15 UTC+0000
p13
asVAdded Entries
p14
(lp15
V0x3fc3d010 UDPv4    0.0.0.0:0                      *:*                                   1008     svchost.exe    2015-08-15 20:15:06 UTC+0000
p16
aV0x3fc6f010 UDPv4    0.0.0.0:123                    *:*                                   1008     svchost.exe    2015-08-15 20:15:06 UTC+0000
p17
aV0x3fc6f170 UDPv4    0.0.0.0:123                    *:*                                   1008     svchost.exe    2015-08-15 20:15:06 UTC+0000
p18
aV0x3fc6f170 UDPv6    :::123                         *:*                                   1008     svchost.exe    2015-08-15 20:15:06 UTC+0000
p19
aV0x3fc782e0 UDPv4    0.0.0.0:0                      *:*                                   1008     svchost.exe    2015-08-15 20:15:06 UTC+0000
p20
aV0x3fc782e0 UDPv6    :::0                           *:*                                   1008     svchost.exe    2015-08-15 20:15:06 UTC+0000
p21
assVldrmodules
p22
(dp23
VRemoved Entries
p24
(lp25
V     248 smss.exe             0x0000000048080000 True   False  True  \u005cWindows\u005cSystem32\u005csmss.exe
p26
aV     324 csrss.exe            0x000007fefccb0000 True   True   True  \u005cWindows\u005cSystem32\u005cbasesrv.dll
p27
aV     324 csrss.exe            0x000007fefccd0000 True   True   True  \u005cWindows\u005cSystem32\u005ccsrsrv.dll
p28
aV     324 csrss.exe            0x000007fefcc70000 True   True   True  \u005cWindows\u005cSystem32\u005cwinsrv.dll
p29
aV     384 csrss.exe            0x000007fefccd0000 True   True   True  \u005cWindows\u005cSystem32\u005ccsrsrv.dll
p30
aV     384 csrss.exe            0x000007fefcc60000 True   True   True  \u005cWindows\u005cSystem32\u005csxssrv.dll
p31
aV     384 csrss.exe            0x000007fefcc70000 True   True   True  \u005cWindows\u005cSystem32\u005cwinsrv.dll
p32
aV     384 csrss.exe            0x000007fefccb0000 True   True   True  \u005cWindows\u005cSystem32\u005cbasesrv.dll
p33
aV     424 winlogon.exe         0x000007fefa7a0000 True   True   True  \u005cWindows\u005cSystem32\u005cUXInit.dll
p34
aV     468 services.exe         0x000007fefca10000 True   True   True  \u005cWindows\u005cSystem32\u005cscesrv.dll
p35
aV     468 services.exe         0x000007fefca90000 True   True   True  \u005cWindows\u005cSystem32\u005cscext.dll
p36
aV     476 lsass.exe            0x000007fefc360000 True   True   True  \u005cWindows\u005cSystem32\u005cnetlogon.dll
p37
aV     476 lsass.exe            0x000007fefc7a0000 True   True   True  \u005cWindows\u005cSystem32\u005csamsrv.dll
p38
aV     476 lsass.exe            0x000007fefc9d0000 True   True   True  \u005cWindows\u005cSystem32\u005csspisrv.dll
p39
aV     476 lsass.exe            0x000007fefc230000 True   True   True  \u005cWindows\u005cSystem32\u005cwdigest.dll
p40
aV     476 lsass.exe            0x000007fefc060000 True   True   True  \u005cWindows\u005cSystem32\u005cscecli.dll
p41
aV     476 lsass.exe            0x000007fefc700000 True   True   True  \u005cWindows\u005cSystem32\u005ccngaudit.dll
p42
aV     476 lsass.exe            0x000007fefc100000 True   True   True  \u005cWindows\u005cSystem32\u005cefslsaext.dll
p43
aV     476 lsass.exe            0x000007fefc5c0000 True   True   True  \u005cWindows\u005cSystem32\u005cnegoexts.dll
p44
aV     476 lsass.exe            0x000007fefc1c0000 True   True   True  \u005cWindows\u005cSystem32\u005cTSpkg.dll
p45
aV     476 lsass.exe            0x000007fefc170000 True   True   True  \u005cWindows\u005cSystem32\u005cpku2u.dll
p46
aV     476 lsass.exe            0x000007fefc500000 True   True   True  \u005cWindows\u005cSystem32\u005ckerberos.dll
p47
aV     484 lsm.exe              0x00000000001a0000 False  False  False \u005cWindows\u005cSystem32\u005cen-US\u005clsm.exe.mui
p48
aV     484 lsm.exe              0x00000000ffaa0000 True   False  True  \u005cWindows\u005cSystem32\u005clsm.exe
p49
aV     588 svchost.exe          0x000007fefbf40000 True   True   True  \u005cWindows\u005cSystem32\u005cumpo.dll
p50
aV     588 svchost.exe          0x000007fef7de0000 True   True   True  \u005cWindows\u005cSystem32\u005cwbem\u005cWmiDcPrv.dll
p51
aV     588 svchost.exe          0x000007fefbff0000 True   True   True  \u005cWindows\u005cSystem32\u005cumpnpmgr.dll
p52
aV     704 svchost.exe          0x0000000072ef0000 False  False  False \u005cWindows\u005cSystem32\u005cwbem\u005cWinMgmtR.dll
p53
aV     812 svchost.exe          0x00000000005d0000 False  False  False \u005cWindows\u005cSystem32\u005cen-US\u005csysmain.dll.mui
p54
aV     812 svchost.exe          0x000007fef70f0000 True   True   True  \u005cWindows\u005cSystem32\u005cApphlpdm.dll
p55
aV     812 svchost.exe          0x000007fef7340000 True   True   True  \u005cWindows\u005cSystem32\u005cPortableDeviceConnectApi.dll
p56
aV     864 svchost.exe          0x000007fef79d0000 True   True   True  \u005cWindows\u005cSystem32\u005chnetcfg.dll
p57
aV     864 svchost.exe          0x000007fefaf30000 True   True   True  \u005cWindows\u005cSystem32\u005crascfg.dll
p58
aV     864 svchost.exe          0x000007fef7c20000 True   True   True  \u005cWindows\u005cSystem32\u005cnetcfgx.dll
p59
aV     864 svchost.exe          0x000007fef9990000 True   True   True  \u005cWindows\u005cSystem32\u005cactxprxy.dll
p60
aV     864 svchost.exe          0x000007fefaef0000 True   True   True  \u005cWindows\u005cSystem32\u005cmprapi.dll
p61
aV     864 svchost.exe          0x000007fefa730000 True   True   True  \u005cWindows\u005cSystem32\u005ces.dll
p62
aV     864 svchost.exe          0x000007fefaf70000 True   True   True  \u005cWindows\u005cSystem32\u005cndiscapCfg.dll
p63
aV     864 svchost.exe          0x000007fefaea0000 True   True   True  \u005cWindows\u005cSystem32\u005ctcpipcfg.dll
p64
aV     864 svchost.exe          0x000007fef7cb0000 True   True   True  \u005cWindows\u005cSystem32\u005cwbem\u005cwbemprox.dll
p65
aV     928 audiodg.exe          0x00000000000b0000 False  False  False \u005cWindows\u005cSystem32\u005cen-US\u005caudiodg.exe.mui
p66
aV     928 audiodg.exe          0x000007fef8c50000 True   True   True  \u005cWindows\u005cSystem32\u005cAUDIOKSE.dll
p67
aV    1008 svchost.exe          0x0000000000c20000 False  False  False \u005cWindows\u005cSystem32\u005cstdole2.tlb
p68
aV     860 svchost.exe          0x000007fef8470000 True   True   True  \u005cWindows\u005cSystem32\u005cncsi.dll
p69
aV     860 svchost.exe          0x000007fef84b0000 True   True   True  \u005cWindows\u005cSystem32\u005cnlasvc.dll
p70
aV    1088 explorer.exe         0x0000000002e10000 False  False  False \u005cWindows\u005cSystem32\u005cen-US\u005cMMDevAPI.dll.mui
p71
aV    1088 explorer.exe         0x0000000002e00000 False  False  False \u005cWindows\u005cSystem32\u005cen-US\u005cwdmaud.drv.mui
p72
aV    1088 explorer.exe         0x0000000003c70000 False  False  False \u005cWindows\u005cSystem32\u005cen-US\u005cbthprops.cpl.mui
p73
aV    1088 explorer.exe         0x0000000003ee0000 False  False  False \u005cWindows\u005cSystem32\u005cen-US\u005cFXSRESM.dll.mui
p74
aV    1204 svchost.exe          0x000007fef70c0000 True   True   True  \u005cWindows\u005cSystem32\u005cradardt.dll
p75
aV    1204 svchost.exe          0x000007fef87f0000 True   True   True  \u005cWindows\u005cSystem32\u005cwfapigp.dll
p76
aV    1372 reader_sl.exe        0x00000000751d0000 False  False  False \u005cWindows\u005cSysWOW64\u005ckernel32.dll
p77
aV    1372 reader_sl.exe        0x0000000000400000 True   False  True  \u005cProgram Files (x86)\u005cAdobe\u005cReader 9.0\u005cReader\u005creader_sl.exe
p78
aV    1372 reader_sl.exe        0x0000000076740000 False  False  False \u005cWindows\u005cSysWOW64\u005cmsctf.dll
p79
aV    1372 reader_sl.exe        0x0000000074a30000 False  False  False \u005cWindows\u005cSysWOW64\u005ccryptbase.dll
p80
aV    1372 reader_sl.exe        0x0000000072fa0000 False  False  False \u005cWindows\u005cSysWOW64\u005cdwmapi.dll
p81
aV    1372 reader_sl.exe        0x0000000075800000 False  False  False \u005cWindows\u005cSysWOW64\u005clpk.dll
p82
aV    1372 reader_sl.exe        0x0000000073640000 True   True   True  \u005cWindows\u005cSystem32\u005cwow64.dll
p83
aV    1372 reader_sl.exe        0x0000000074ca0000 False  False  False \u005cWindows\u005cSysWOW64\u005crpcrt4.dll
p84
aV    1372 reader_sl.exe        0x00000000736b0000 True   True   True  \u005cWindows\u005cSystem32\u005cwow64cpu.dll
p85
aV    1372 reader_sl.exe        0x00000000758c0000 False  False  False \u005cWindows\u005cSysWOW64\u005cshell32.dll
p86
aV    1372 reader_sl.exe        0x0000000076ed0000 False  False  False \u005cWindows\u005cSysWOW64\u005cntdll.dll
p87
aV    1372 reader_sl.exe        0x0000000074ef0000 False  False  False \u005cWindows\u005cSysWOW64\u005cusp10.dll
p88
aV    1372 reader_sl.exe        0x0000000074a40000 False  False  False \u005cWindows\u005cSysWOW64\u005csspicli.dll
p89
aV    1372 reader_sl.exe        0x0000000075120000 False  False  False \u005cWindows\u005cSysWOW64\u005cmsvcrt.dll
p90
aV    1372 reader_sl.exe        0x0000000074ba0000 False  False  False \u005cWindows\u005cSysWOW64\u005cuser32.dll
p91
aV    1372 reader_sl.exe        0x00000000768f0000 False  False  False \u005cWindows\u005cSysWOW64\u005cgdi32.dll
p92
aV    1372 reader_sl.exe        0x0000000073550000 False  False  False \u005cWindows\u005cwinsxs\u005cx86_microsoft.vc80.crt_1fc8b3b9a1e18e3b_8.0.50727.4927_none_d08a205e442db5b5\u005cmsvcp80.dll
p93
aV    1372 reader_sl.exe        0x00000000735e0000 True   True   True  \u005cWindows\u005cSystem32\u005cwow64win.dll
p94
aV    1372 reader_sl.exe        0x0000000075810000 False  False  False \u005cWindows\u005cSysWOW64\u005csechost.dll
p95
aV    1372 reader_sl.exe        0x0000000073430000 False  False  False \u005cWindows\u005cSysWOW64\u005cuxtheme.dll
p96
aV    1372 reader_sl.exe        0x0000000075640000 False  False  False \u005cWindows\u005cSysWOW64\u005cimm32.dll
p97
aV    1372 reader_sl.exe        0x0000000076850000 False  False  False \u005cWindows\u005cSysWOW64\u005cKernelBase.dll
p98
aV    1372 reader_sl.exe        0x0000000074aa0000 False  False  False \u005cWindows\u005cSysWOW64\u005cshlwapi.dll
p99
aV    1372 reader_sl.exe        0x00000000734b0000 False  False  False \u005cWindows\u005cwinsxs\u005cx86_microsoft.vc80.crt_1fc8b3b9a1e18e3b_8.0.50727.4927_none_d08a205e442db5b5\u005cmsvcr80.dll
p100
aV    1372 reader_sl.exe        0x0000000076cf0000 True   True   True  \u005cWindows\u005cSystem32\u005cntdll.dll
p101
aV    1372 reader_sl.exe        0x0000000074b00000 False  False  False \u005cWindows\u005cSysWOW64\u005cadvapi32.dll
p102
aV    1380 AdobeARM.exe         0x0000000074670000 False  False  False \u005cWindows\u005cSysWOW64\u005cqmgrprxy.dll
p103
aV    1380 AdobeARM.exe         0x0000000073680000 False  False  False \u005cWindows\u005cSysWOW64\u005coledlg.dll
p104
aV    1536 svchost.exe          0x000007fefae80000 True   True   True  \u005cWindows\u005cSystem32\u005chttpapi.dll
p105
aV    1900 svchost.exe          0x000007fef7290000 True   True   True  \u005cWindows\u005cSystem32\u005cFwRemoteSvr.dll
p106
aV    1884 SearchFilterHo       0x0000000076ad0000 True   True   True  \u005cWindows\u005cSystem32\u005cuser32.dll
p107
aV    1884 SearchFilterHo       0x0000000076cf0000 True   True   True  \u005cWindows\u005cSystem32\u005cntdll.dll
p108
aV    1884 SearchFilterHo       0x000007fefcb40000 True   True   True  \u005cWindows\u005cSystem32\u005ccryptbase.dll
p109
aV    1884 SearchFilterHo       0x000007fefcc30000 True   True   True  \u005cWindows\u005cSystem32\u005cRpcRtRemote.dll
p110
aV    1884 SearchFilterHo       0x000007fefd380000 True   True   True  \u005cWindows\u005cSystem32\u005cmsvcrt.dll
p111
aV    1884 SearchFilterHo       0x000007fefd990000 True   True   True  \u005cWindows\u005cSystem32\u005cmsctf.dll
p112
aV    1884 SearchFilterHo       0x000007fefd780000 True   True   True  \u005cWindows\u005cSystem32\u005cole32.dll
p113
aV    1884 SearchFilterHo       0x000007fefd5f0000 True   True   True  \u005cWindows\u005cSystem32\u005crpcrt4.dll
p114
aV    1884 SearchFilterHo       0x000007fefee10000 True   True   True  \u005cWindows\u005cSystem32\u005cgdi32.dll
p115
aV    1884 SearchFilterHo       0x000007fefd2a0000 True   True   True  \u005cWindows\u005cSystem32\u005coleaut32.dll
p116
aV    1884 SearchFilterHo       0x000007fefde90000 True   True   True  \u005cWindows\u005cSystem32\u005cshlwapi.dll
p117
aV    1884 SearchFilterHo       0x000007fefef20000 True   True   True  \u005cWindows\u005cSystem32\u005cadvapi32.dll
p118
aV    1884 SearchFilterHo       0x000007fefc4e0000 True   True   True  \u005cWindows\u005cSystem32\u005ccryptsp.dll
p119
aV    1884 SearchFilterHo       0x000007fefd770000 True   True   True  \u005cWindows\u005cSystem32\u005clpk.dll
p120
aV    1884 SearchFilterHo       0x000007fef63b0000 True   True   True  \u005cWindows\u005cSystem32\u005cmssprxy.dll
p121
aV    1884 SearchFilterHo       0x000007fefd5c0000 True   True   True  \u005cWindows\u005cSystem32\u005cimm32.dll
p122
aV    1884 SearchFilterHo       0x0000000076bd0000 True   True   True  \u005cWindows\u005cSystem32\u005ckernel32.dll
p123
aV    1884 SearchFilterHo       0x000007fefc1e0000 True   True   True  \u005cWindows\u005cSystem32\u005crsaenh.dll
p124
aV    1884 SearchFilterHo       0x000007fefce00000 True   True   True  \u005cWindows\u005cSystem32\u005cKernelBase.dll
p125
aV    1884 SearchFilterHo       0x000007fefeca0000 True   True   True  \u005cWindows\u005cSystem32\u005cclbcatq.dll
p126
aV    1884 SearchFilterHo       0x00000000ff570000 True   False  True  \u005cWindows\u005cSystem32\u005cSearchFilterHost.exe
p127
aV    1884 SearchFilterHo       0x000007fef5df0000 True   True   True  \u005cWindows\u005cSystem32\u005cmscoree.dll
p128
aV    1884 SearchFilterHo       0x000007fef5e60000 True   True   True  \u005cWindows\u005cSystem32\u005cmsshooks.dll
p129
aV    1884 SearchFilterHo       0x000007fefd280000 True   True   True  \u005cWindows\u005cSystem32\u005csechost.dll
p130
aV    1884 SearchFilterHo       0x000007fefdaa0000 True   True   True  \u005cWindows\u005cSystem32\u005cusp10.dll
p131
aV    1884 SearchFilterHo       0x000007fef68d0000 True   True   True  \u005cWindows\u005cSystem32\u005ctquery.dll
p132
aV    1884 SearchFilterHo       0x000007fef5d50000 True   True   True  \u005cWindows\u005cMicrosoft.NET\u005cFramework64\u005cv4.0.30319\u005cmscoreei.dll
p133
aV     608 SearchProtocol       0x0000000076ad0000 True   True   True  \u005cWindows\u005cSystem32\u005cuser32.dll
p134
aV     608 SearchProtocol       0x0000000076cf0000 True   True   True  \u005cWindows\u005cSystem32\u005cntdll.dll
p135
aV     608 SearchProtocol       0x000007fefd2a0000 True   True   True  \u005cWindows\u005cSystem32\u005coleaut32.dll
p136
aV     608 SearchProtocol       0x000007fefcc30000 True   True   True  \u005cWindows\u005cSystem32\u005cRpcRtRemote.dll
p137
aV     608 SearchProtocol       0x000007fefd380000 True   True   True  \u005cWindows\u005cSystem32\u005cmsvcrt.dll
p138
aV     608 SearchProtocol       0x000007fefd990000 True   True   True  \u005cWindows\u005cSystem32\u005cmsctf.dll
p139
aV     608 SearchProtocol       0x00000000ff1b0000 True   False  True  \u005cWindows\u005cSystem32\u005cSearchProtocolHost.exe
p140
aV     608 SearchProtocol       0x000007fefd780000 True   True   True  \u005cWindows\u005cSystem32\u005cole32.dll
p141
aV     608 SearchProtocol       0x000007fefcfe0000 True   True   True  \u005cWindows\u005cSystem32\u005ccfgmgr32.dll
p142
aV     608 SearchProtocol       0x000007fefd5f0000 True   True   True  \u005cWindows\u005cSystem32\u005crpcrt4.dll
p143
aV     608 SearchProtocol       0x000007fefee10000 True   True   True  \u005cWindows\u005cSystem32\u005cgdi32.dll
p144
aV     608 SearchProtocol       0x000007fefcb40000 True   True   True  \u005cWindows\u005cSystem32\u005ccryptbase.dll
p145
aV     608 SearchProtocol       0x000007fef5c60000 True   True   True  \u005cWindows\u005cSystem32\u005cmapi32.dll
p146
aV     608 SearchProtocol       0x000007fefde90000 True   True   True  \u005cWindows\u005cSystem32\u005cshlwapi.dll
p147
aV     608 SearchProtocol       0x000007fefef20000 True   True   True  \u005cWindows\u005cSystem32\u005cadvapi32.dll
p148
aV     608 SearchProtocol       0x000007fefc6d0000 True   True   True  \u005cWindows\u005cSystem32\u005cauthz.dll
p149
aV     608 SearchProtocol       0x000007fefc4e0000 True   True   True  \u005cWindows\u005cSystem32\u005ccryptsp.dll
p150
aV     608 SearchProtocol       0x000007fefcd00000 True   True   True  \u005cWindows\u005cSystem32\u005cdevobj.dll
p151
aV     608 SearchProtocol       0x000007fefdf10000 True   True   True  \u005cWindows\u005cSystem32\u005cshell32.dll
p152
aV     608 SearchProtocol       0x000007fefed40000 True   True   True  \u005cWindows\u005cSystem32\u005cWldap32.dll
p153
aV     608 SearchProtocol       0x000007fefab70000 True   True   True  \u005cWindows\u005cSystem32\u005cntmarta.dll
p154
aV     608 SearchProtocol       0x000007fefb580000 True   True   True  \u005cWindows\u005cSystem32\u005cpropsys.dll
p155
aV     608 SearchProtocol       0x000007fef63b0000 True   True   True  \u005cWindows\u005cSystem32\u005cmssprxy.dll
p156
aV     608 SearchProtocol       0x000007fefd5c0000 True   True   True  \u005cWindows\u005cSystem32\u005cimm32.dll
p157
aV     608 SearchProtocol       0x0000000076bd0000 True   True   True  \u005cWindows\u005cSystem32\u005ckernel32.dll
p158
aV     608 SearchProtocol       0x000007fefc1e0000 True   True   True  \u005cWindows\u005cSystem32\u005crsaenh.dll
p159
aV     608 SearchProtocol       0x000007fefce00000 True   True   True  \u005cWindows\u005cSystem32\u005cKernelBase.dll
p160
aV     608 SearchProtocol       0x000007fefeca0000 True   True   True  \u005cWindows\u005cSystem32\u005cclbcatq.dll
p161
aV     608 SearchProtocol       0x000007fef6410000 True   True   True  \u005cWindows\u005cSystem32\u005cmsidle.dll
p162
aV     608 SearchProtocol       0x000007fef5e60000 True   True   True  \u005cWindows\u005cSystem32\u005cmsshooks.dll
p163
aV     608 SearchProtocol       0x000007fefd280000 True   True   True  \u005cWindows\u005cSystem32\u005csechost.dll
p164
aV     608 SearchProtocol       0x000007fef5490000 True   True   True  \u005cWindows\u005cSystem32\u005cmssph.dll
p165
aV     608 SearchProtocol       0x000007fefdaa0000 True   True   True  \u005cWindows\u005cSystem32\u005cusp10.dll
p166
aV     608 SearchProtocol       0x000007fefd770000 True   True   True  \u005cWindows\u005cSystem32\u005clpk.dll
p167
aV     608 SearchProtocol       0x000007fefdcb0000 True   True   True  \u005cWindows\u005cSystem32\u005csetupapi.dll
p168
aV     608 SearchProtocol       0x000007fef68d0000 True   True   True  \u005cWindows\u005cSystem32\u005ctquery.dll
p169
aV     608 SearchProtocol       0x000007fefb700000 True   True   True  \u005cWindows\u005cwinsxs\u005camd64_microsoft.windows.common-controls_6595b64144ccf1df_6.0.7600.16385_none_fa645303170382f6\u005ccomctl32.dll
p170
aV    2308 cmd.exe              0x00000000000f0000 False  False  False \u005cWindows\u005cSystem32\u005cen-US\u005ccmd.exe.mui
p171
aV    2308 cmd.exe              0x000000004a470000 True   False  True  \u005cWindows\u005cSystem32\u005ccmd.exe
p172
aV    2308 cmd.exe              0x000007fefcae0000 True   True   True  \u005cWindows\u005cSystem32\u005capphelp.dll
p173
aV    2308 cmd.exe              0x0000000076cf0000 True   True   True  \u005cWindows\u005cSystem32\u005cntdll.dll
p174
aV    2308 cmd.exe              0x000007fefd770000 True   True   True  \u005cWindows\u005cSystem32\u005clpk.dll
p175
aV    2308 cmd.exe              0x000007fefd380000 True   True   True  \u005cWindows\u005cSystem32\u005cmsvcrt.dll
p176
aV    2308 cmd.exe              0x000007fefd990000 True   True   True  \u005cWindows\u005cSystem32\u005cmsctf.dll
p177
aV    2308 cmd.exe              0x000007fefdaa0000 True   True   True  \u005cWindows\u005cSystem32\u005cusp10.dll
p178
aV    2308 cmd.exe              0x000007fefd5c0000 True   True   True  \u005cWindows\u005cSystem32\u005cimm32.dll
p179
aV    2308 cmd.exe              0x0000000076bd0000 True   True   True  \u005cWindows\u005cSystem32\u005ckernel32.dll
p180
aV    2308 cmd.exe              0x000007fef90e0000 True   True   True  \u005cWindows\u005cSystem32\u005cwinbrand.dll
p181
aV    2308 cmd.exe              0x0000000076ad0000 True   True   True  \u005cWindows\u005cSystem32\u005cuser32.dll
p182
aV    2308 cmd.exe              0x000007fefce00000 True   True   True  \u005cWindows\u005cSystem32\u005cKernelBase.dll
p183
aV    2308 cmd.exe              0x000007fefee10000 True   True   True  \u005cWindows\u005cSystem32\u005cgdi32.dll
p184
aV    2316 conhost.exe          0x00000000000b0000 False  False  False \u005cWindows\u005cSystem32\u005cen-US\u005cconhost.exe.mui
p185
aV    2316 conhost.exe          0x0000000076ad0000 True   True   True  \u005cWindows\u005cSystem32\u005cuser32.dll
p186
aV    2316 conhost.exe          0x000007fefd2a0000 True   True   True  \u005cWindows\u005cSystem32\u005coleaut32.dll
p187
aV    2316 conhost.exe          0x000007fefd780000 True   True   True  \u005cWindows\u005cSystem32\u005cole32.dll
p188
aV    2316 conhost.exe          0x000007fefd990000 True   True   True  \u005cWindows\u005cSystem32\u005cmsctf.dll
p189
aV    2316 conhost.exe          0x000007fefd380000 True   True   True  \u005cWindows\u005cSystem32\u005cmsvcrt.dll
p190
aV    2316 conhost.exe          0x000007fefd5f0000 True   True   True  \u005cWindows\u005cSystem32\u005crpcrt4.dll
p191
aV    2316 conhost.exe          0x000007fefee10000 True   True   True  \u005cWindows\u005cSystem32\u005cgdi32.dll
p192
aV    2316 conhost.exe          0x000007fefcb40000 True   True   True  \u005cWindows\u005cSystem32\u005ccryptbase.dll
p193
aV    2316 conhost.exe          0x000007fefde90000 True   True   True  \u005cWindows\u005cSystem32\u005cshlwapi.dll
p194
aV    2316 conhost.exe          0x000007fefef20000 True   True   True  \u005cWindows\u005cSystem32\u005cadvapi32.dll
p195
aV    2316 conhost.exe          0x00000000ff0c0000 True   False  True  \u005cWindows\u005cSystem32\u005cconhost.exe
p196
aV    2316 conhost.exe          0x000007fefb520000 True   True   True  \u005cWindows\u005cSystem32\u005cuxtheme.dll
p197
aV    2316 conhost.exe          0x0000000076cf0000 True   True   True  \u005cWindows\u005cSystem32\u005cntdll.dll
p198
aV    2316 conhost.exe          0x000007fefd5c0000 True   True   True  \u005cWindows\u005cSystem32\u005cimm32.dll
p199
aV    2316 conhost.exe          0x0000000076bd0000 True   True   True  \u005cWindows\u005cSystem32\u005ckernel32.dll
p200
aV    2316 conhost.exe          0x000007fefce00000 True   True   True  \u005cWindows\u005cSystem32\u005cKernelBase.dll
p201
aV    2316 conhost.exe          0x000007fefd770000 True   True   True  \u005cWindows\u005cSystem32\u005clpk.dll
p202
aV    2316 conhost.exe          0x000007fefd280000 True   True   True  \u005cWindows\u005cSystem32\u005csechost.dll
p203
aV    2316 conhost.exe          0x000007fefdaa0000 True   True   True  \u005cWindows\u005cSystem32\u005cusp10.dll
p204
aV    2316 conhost.exe          0x000007fefb0f0000 True   True   True  \u005cWindows\u005cSystem32\u005cdwmapi.dll
p205
aV    2316 conhost.exe          0x000007fefb700000 True   True   True  \u005cWindows\u005cwinsxs\u005camd64_microsoft.windows.common-controls_6595b64144ccf1df_6.0.7600.16385_none_fa645303170382f6\u005ccomctl32.dll
p206
asVAdded Entries
p207
(lp208
V     324 csrss.exe            0x00000000026a0000 False  False  False \u005cWindows\u005cFonts\u005cvgaoem.fon
p209
aV     324 csrss.exe            0x00000000026b0000 False  False  False \u005cWindows\u005cFonts\u005cdosapp.fon
p210
aV     324 csrss.exe            0x00000000026c0000 False  False  False \u005cWindows\u005cFonts\u005ccga40woa.fon
p211
aV     324 csrss.exe            0x00000000026d0000 False  False  False \u005cWindows\u005cFonts\u005ccga80woa.fon
p212
aV     324 csrss.exe            0x00000000026e0000 False  False  False \u005cWindows\u005cFonts\u005cega40woa.fon
p213
aV     476 lsass.exe            0x000007fef35b0000 True   True   True  \u005cWindows\u005cSystem32\u005cdssenh.dll
p214
aV     476 lsass.exe            0x000007fefbf70000 True   True   True  \u005cWindows\u005cSystem32\u005cgpapi.dll
p215
aV     704 svchost.exe          0x000007fef3b60000 True   True   True  \u005cWindows\u005cSystem32\u005cwuapi.dll
p216
aV     704 svchost.exe          0x000007fefae10000 True   True   True  \u005cWindows\u005cSystem32\u005cnetutils.dll
p217
aV     704 svchost.exe          0x000007fef3b40000 True   True   True  \u005cWindows\u005cSystem32\u005ccabinet.dll
p218
aV     704 svchost.exe          0x000007fefce70000 True   True   True  \u005cWindows\u005cSystem32\u005ccrypt32.dll
p219
aV     704 svchost.exe          0x000007fef8040000 True   True   True  \u005cWindows\u005cSystem32\u005cwbemcomn.dll
p220
aV     704 svchost.exe          0x000007fefccf0000 True   True   True  \u005cWindows\u005cSystem32\u005cmsasn1.dll
p221
aV     704 svchost.exe          0x000007fefadf0000 True   True   True  \u005cWindows\u005cSystem32\u005cwkscli.dll
p222
aV     704 svchost.exe          0x000007fef7cc0000 True   True   True  \u005cWindows\u005cSystem32\u005cntdsapi.dll
p223
aV     704 svchost.exe          0x000007fefcdc0000 True   True   True  \u005cWindows\u005cSystem32\u005cwintrust.dll
p224
aV     704 svchost.exe          0x000007fefbf90000 True   True   True  \u005cWindows\u005cSystem32\u005cuserenv.dll
p225
aV     704 svchost.exe          0x000007fef7cf0000 True   True   True  \u005cWindows\u005cSystem32\u005cwbem\u005cfastprox.dll
p226
aV     704 svchost.exe          0x000007fef3c10000 True   True   True  \u005cWindows\u005cSystem32\u005cdbghelp.dll
p227
aV     704 svchost.exe          0x000007fef7a40000 True   True   True  \u005cWindows\u005cSystem32\u005cwbem\u005cwbemsvc.dll
p228
aV     704 svchost.exe          0x000007fefcc50000 True   True   True  \u005cWindows\u005cSystem32\u005cprofapi.dll
p229
aV     704 svchost.exe          0x000007fefacb0000 True   True   True  \u005cWindows\u005cSystem32\u005cwscsvc.dll
p230
aV     704 svchost.exe          0x000007fef7cb0000 True   True   True  \u005cWindows\u005cSystem32\u005cwbem\u005cwbemprox.dll
p231
aV     864 svchost.exe          0x000007fef9610000 True   True   True  \u005cWindows\u005cSystem32\u005cwer.dll
p232
aV     864 svchost.exe          0x000007fef27a0000 True   True   True  \u005cWindows\u005cSystem32\u005caelupsvc.dll
p233
aV     864 svchost.exe          0x000007fefaca0000 True   True   True  \u005cWindows\u005cSystem32\u005cmspatcha.dll
p234
aV     864 svchost.exe          0x000007fef5d30000 True   True   True  \u005cWindows\u005cSystem32\u005cwbem\u005cNCProv.dll
p235
aV     864 svchost.exe          0x000007fef3b40000 True   True   True  \u005cWindows\u005cSystem32\u005ccabinet.dll
p236
aV     864 svchost.exe          0x000007fefc630000 True   True   True  \u005cWindows\u005cSystem32\u005cwmsgapi.dll
p237
aV     864 svchost.exe          0x000007fef38e0000 True   True   True  \u005cWindows\u005cSystem32\u005cwuaueng.dll
p238
aV     864 svchost.exe          0x0000000076ec0000 True   True   True  \u005cWindows\u005cSystem32\u005cpsapi.dll
p239
aV     864 svchost.exe          0x0000000001320000 False  False  False \u005cWindows\u005cSystem32\u005cen-US\u005cwuaueng.dll.mui
p240
aV     864 svchost.exe          0x000007fef6420000 True   True   True  \u005cWindows\u005cSystem32\u005cesent.dll
p241
aV     864 svchost.exe          0x000007fef6e90000 True   True   True  \u005cWindows\u005cSystem32\u005cwinspool.drv
p242
aV    1008 svchost.exe          0x000007fefc780000 True   True   True  \u005cWindows\u005cSystem32\u005ccryptdll.dll
p243
aV    1008 svchost.exe          0x000007fefa7c0000 True   True   True  \u005cWindows\u005cSystem32\u005cdsrole.dll
p244
aV    1008 svchost.exe          0x000007fefc2d0000 True   True   True  \u005cWindows\u005cSystem32\u005clogoncli.dll
p245
aV    1008 svchost.exe          0x000007fef26f0000 True   True   True  \u005cWindows\u005cSystem32\u005cvmictimeprovider.dll
p246
aV    1008 svchost.exe          0x000007fef2710000 True   True   True  \u005cWindows\u005cSystem32\u005cw32time.dll
p247
aV     860 svchost.exe          0x000007fef6420000 True   True   True  \u005cWindows\u005cSystem32\u005cesent.dll
p248
aV     860 svchost.exe          0x0000000076ec0000 True   True   True  \u005cWindows\u005cSystem32\u005cpsapi.dll
p249
aV    1088 explorer.exe         0x0000000003bd0000 False  False  False \u005cWindows\u005cSystem32\u005cmsxml6r.dll
p250
aV    1088 explorer.exe         0x000007fef35f0000 True   True   True  \u005cProgram Files\u005cInternet Explorer\u005cieproxy.dll
p251
aV    1088 explorer.exe         0x000007fef3380000 True   True   True  \u005cWindows\u005cSystem32\u005cwscui.cpl
p252
aV    1088 explorer.exe         0x000007fef3670000 True   True   True  \u005cWindows\u005cSystem32\u005cframedynos.dll
p253
aV    1088 explorer.exe         0x000007fef3770000 True   True   True  \u005cWindows\u005cSystem32\u005cwscinterop.dll
p254
aV    1088 explorer.exe         0x000007fef37a0000 True   True   True  \u005cWindows\u005cSystem32\u005cwscapi.dll
p255
aV    1088 explorer.exe         0x000007fef3740000 True   True   True  \u005cWindows\u005cSystem32\u005chcproviders.dll
p256
aV    1088 explorer.exe         0x0000000003c10000 False  False  False \u005cWindows\u005cSystem32\u005cen-US\u005cActionCenter.dll.mui
p257
aV    1088 explorer.exe         0x000007fef7550000 True   True   True  \u005cWindows\u005cSystem32\u005cmsxml6.dll
p258
aV    1088 explorer.exe         0x000007fef3750000 True   True   True  \u005cWindows\u005cSystem32\u005cwercplsupport.dll
p259
aV    1088 explorer.exe         0x000007fef3240000 True   True   True  \u005cWindows\u005cSystem32\u005cwerconcpl.dll
p260
aV    1156 spoolsv.exe          0x0000000000180000 False  False  False \u005cWindows\u005cSystem32\u005cmsxml6r.dll
p261
aV    1156 spoolsv.exe          0x00000000029e0000 False  False  False \u005cWindows\u005cSystem32\u005cen-US\u005cKernelBase.dll.mui
p262
aV    1156 spoolsv.exe          0x000007fefc9e0000 True   True   True  \u005cWindows\u005cSystem32\u005csrvcli.dll
p263
aV    1156 spoolsv.exe          0x000007fef8740000 True   True   True  \u005cWindows\u005cSystem32\u005cWSDApi.dll
p264
aV    1156 spoolsv.exe          0x000007fefa7c0000 True   True   True  \u005cWindows\u005cSystem32\u005cdsrole.dll
p265
aV    1156 spoolsv.exe          0x000007fefcbf0000 True   True   True  \u005cWindows\u005cSystem32\u005cwinsta.dll
p266
aV    1156 spoolsv.exe          0x000007fef3fc0000 True   True   True  \u005cWindows\u005cSystem32\u005cspool\u005cprtprocs\u005cx64\u005cwinprint.dll
p267
aV    1156 spoolsv.exe          0x000007fefae90000 True   True   True  \u005cWindows\u005cSystem32\u005crasadhlp.dll
p268
aV    1156 spoolsv.exe          0x000007fefbdd0000 True   True   True  \u005cWindows\u005cSystem32\u005cFirewallAPI.dll
p269
aV    1156 spoolsv.exe          0x000007fef3fe0000 True   True   True  \u005cWindows\u005cSystem32\u005cWSDMon.dll
p270
aV    1156 spoolsv.exe          0x000007fefa7e0000 True   True   True  \u005cWindows\u005cSystem32\u005catl.dll
p271
aV    1156 spoolsv.exe          0x000007fefa560000 True   True   True  \u005cWindows\u005cSystem32\u005cFWPUCLNT.DLL
p272
aV    1156 spoolsv.exe          0x000007fef4020000 True   True   True  \u005cWindows\u005cSystem32\u005cWlS0WndH.dll
p273
aV    1156 spoolsv.exe          0x000007fefc480000 True   True   True  \u005cWindows\u005cSystem32\u005cmswsock.dll
p274
aV    1156 spoolsv.exe          0x000007fefbfd0000 True   True   True  \u005cWindows\u005cSystem32\u005cSPInf.dll
p275
aV    1156 spoolsv.exe          0x000007fefbe90000 True   True   True  \u005cWindows\u005cSystem32\u005cWSHTCPIP.DLL
p276
aV    1156 spoolsv.exe          0x000007fef5c80000 True   True   True  \u005cWindows\u005cSystem32\u005cusbmon.dll
p277
aV    1156 spoolsv.exe          0x000007fef6e90000 True   True   True  \u005cWindows\u005cSystem32\u005cwinspool.drv
p278
aV    1156 spoolsv.exe          0x000007fefccf0000 True   True   True  \u005cWindows\u005cSystem32\u005cmsasn1.dll
p279
aV    1156 spoolsv.exe          0x000007fef5ca0000 True   True   True  \u005cWindows\u005cSystem32\u005ctcpmon.dll
p280
aV    1156 spoolsv.exe          0x000007fefde90000 True   True   True  \u005cWindows\u005cSystem32\u005cshlwapi.dll
p281
aV    1156 spoolsv.exe          0x000007fef3ed0000 True   True   True  \u005cWindows\u005cSystem32\u005cinetpp.dll
p282
aV    1156 spoolsv.exe          0x000007fef5ce0000 True   True   True  \u005cWindows\u005cSystem32\u005cFXSMON.dll
p283
aV    1156 spoolsv.exe          0x000007fefa6f0000 True   True   True  \u005cWindows\u005cSystem32\u005cwinnsi.dll
p284
aV    1156 spoolsv.exe          0x000007fefbfb0000 True   True   True  \u005cWindows\u005cSystem32\u005cdevrtl.dll
p285
aV    1156 spoolsv.exe          0x000007fefae10000 True   True   True  \u005cWindows\u005cSystem32\u005cnetutils.dll
p286
aV    1156 spoolsv.exe          0x000007fefbf70000 True   True   True  \u005cWindows\u005cSystem32\u005cgpapi.dll
p287
aV    1156 spoolsv.exe          0x000007fefcc50000 True   True   True  \u005cWindows\u005cSystem32\u005cprofapi.dll
p288
aV    1156 spoolsv.exe          0x000007fefbf90000 True   True   True  \u005cWindows\u005cSystem32\u005cuserenv.dll
p289
aV    1156 spoolsv.exe          0x000007fefeca0000 True   True   True  \u005cWindows\u005cSystem32\u005cclbcatq.dll
p290
aV    1156 spoolsv.exe          0x000007fefbdc0000 True   True   True  \u005cWindows\u005cSystem32\u005cversion.dll
p291
aV    1156 spoolsv.exe          0x000007fef85e0000 True   True   True  \u005cWindows\u005cSystem32\u005cfundisc.dll
p292
aV    1156 spoolsv.exe          0x000007fef7550000 True   True   True  \u005cWindows\u005cSystem32\u005cmsxml6.dll
p293
aV    1156 spoolsv.exe          0x000007fefc4e0000 True   True   True  \u005cWindows\u005cSystem32\u005ccryptsp.dll
p294
aV    1156 spoolsv.exe          0x000007fef5c90000 True   True   True  \u005cWindows\u005cSystem32\u005csnmpapi.dll
p295
aV    1156 spoolsv.exe          0x000007fef8620000 True   True   True  \u005cWindows\u005cSystem32\u005cwebservices.dll
p296
aV    1156 spoolsv.exe          0x000007fefc1e0000 True   True   True  \u005cWindows\u005cSystem32\u005crsaenh.dll
p297
aV    1156 spoolsv.exe          0x000007fef4030000 True   True   True  \u005cWindows\u005cSystem32\u005cwsnmp32.dll
p298
aV    1156 spoolsv.exe          0x000007fef4050000 True   True   True  \u005cWindows\u005cSystem32\u005clocalspl.dll
p299
aV    1156 spoolsv.exe          0x000007fefc470000 True   True   True  \u005cWindows\u005cSystem32\u005cwship6.dll
p300
aV    1156 spoolsv.exe          0x000007fef3fd0000 True   True   True  \u005cWindows\u005cSystem32\u005cfdPnp.dll
p301
aV    1156 spoolsv.exe          0x000007fefce70000 True   True   True  \u005cWindows\u005cSystem32\u005ccrypt32.dll
p302
aV    1156 spoolsv.exe          0x000007fefcdc0000 True   True   True  \u005cWindows\u005cSystem32\u005cwintrust.dll
p303
aV    1156 spoolsv.exe          0x000007fef90f0000 True   True   True  \u005cWindows\u005cSystem32\u005cPrintIsolationProxy.dll
p304
aV    1156 spoolsv.exe          0x000007fefa700000 True   True   True  \u005cWindows\u005cSystem32\u005cIPHLPAPI.DLL
p305
aV    1156 spoolsv.exe          0x000007fef5cf0000 True   True   True  \u005cWindows\u005cSystem32\u005cspoolss.dll
p306
aV    1156 spoolsv.exe          0x000007fef3f00000 True   True   True  \u005cWindows\u005cSystem32\u005cwin32spl.dll
p307
aV    1156 spoolsv.exe          0x000007fef5d10000 True   True   True  \u005cWindows\u005cSystem32\u005cumb.dll
p308
aV    1156 spoolsv.exe          0x000007fef9cf0000 True   True   True  \u005cWindows\u005cSystem32\u005ccscapi.dll
p309
aV    1196 taskhost.exe         0x00000000003c0000 False  False  False \u005cWindows\u005cSystem32\u005cen-US\u005cMMDevAPI.dll.mui
p310
aV    1196 taskhost.exe         0x00000000003b0000 False  False  False \u005cWindows\u005cSystem32\u005cen-US\u005cwdmaud.drv.mui
p311
aV    1196 taskhost.exe         0x000007fefabc0000 True   True   True  \u005cWindows\u005cSystem32\u005cavrt.dll
p312
aV    1196 taskhost.exe         0x000007fef8e30000 True   True   True  \u005cWindows\u005cSystem32\u005cmsacm32.dll
p313
aV    1196 taskhost.exe         0x000007fef8e50000 True   True   True  \u005cWindows\u005cSystem32\u005cmsacm32.drv
p314
aV    1196 taskhost.exe         0x000007fef8eb0000 True   True   True  \u005cWindows\u005cSystem32\u005cwdmaud.drv
p315
aV    1196 taskhost.exe         0x000007fefb580000 True   True   True  \u005cWindows\u005cSystem32\u005cpropsys.dll
p316
aV    1196 taskhost.exe         0x0000000072f90000 True   True   True  \u005cWindows\u005cSystem32\u005cksuser.dll
p317
aV    1196 taskhost.exe         0x000007fef8e20000 True   True   True  \u005cWindows\u005cSystem32\u005cmidimap.dll
p318
aV    1196 taskhost.exe         0x000007fefcd00000 True   True   True  \u005cWindows\u005cSystem32\u005cdevobj.dll
p319
aV    1196 taskhost.exe         0x000007fefcfe0000 True   True   True  \u005cWindows\u005cSystem32\u005ccfgmgr32.dll
p320
aV    1196 taskhost.exe         0x000007fef8e60000 True   True   True  \u005cWindows\u005cSystem32\u005cAudioSes.dll
p321
aV    1196 taskhost.exe         0x000007fefdcb0000 True   True   True  \u005cWindows\u005cSystem32\u005csetupapi.dll
p322
aV    1196 taskhost.exe         0x000007fefb110000 True   True   True  \u005cWindows\u005cSystem32\u005cMMDevAPI.dll
p323
aV     268 SearchIndexer.       0x0000000073db0000 True   True   True  \u005cWindows\u005cSystem32\u005cNlsLexicons0010.dll
p324
aV     268 SearchIndexer.       0x000007fef21d0000 True   True   True  \u005cWindows\u005cSystem32\u005cNlsData0010.dll
p325
aV     268 SearchIndexer.       0x000007fef2640000 True   True   True  \u005cWindows\u005cSystem32\u005celslad.dll
p326
aV     268 SearchIndexer.       0x000007fef2790000 True   True   True  \u005cWindows\u005cSystem32\u005cELSCore.dll
p327
aV    2748 sppsvc.exe           0x0000000076ad0000 True   True   True  \u005cWindows\u005cSystem32\u005cuser32.dll
p328
aV    2748 sppsvc.exe           0x0000000076cf0000 True   True   True  \u005cWindows\u005cSystem32\u005cntdll.dll
p329
aV    2748 sppsvc.exe           0x000007fefcc30000 True   True   True  \u005cWindows\u005cSystem32\u005cRpcRtRemote.dll
p330
aV    2748 sppsvc.exe           0x000007fefd5c0000 True   True   True  \u005cWindows\u005cSystem32\u005cimm32.dll
p331
aV    2748 sppsvc.exe           0x00000000ff9a0000 True   False  True  \u005cWindows\u005cSystem32\u005csppsvc.exe
p332
aV    2748 sppsvc.exe           0x000007fefd770000 True   True   True  \u005cWindows\u005cSystem32\u005clpk.dll
p333
aV    2748 sppsvc.exe           0x000007fefdaa0000 True   True   True  \u005cWindows\u005cSystem32\u005cusp10.dll
p334
aV    2748 sppsvc.exe           0x000007fefd380000 True   True   True  \u005cWindows\u005cSystem32\u005cmsvcrt.dll
p335
aV    2748 sppsvc.exe           0x000007fefd990000 True   True   True  \u005cWindows\u005cSystem32\u005cmsctf.dll
p336
aV    2748 sppsvc.exe           0x000007fefd280000 True   True   True  \u005cWindows\u005cSystem32\u005csechost.dll
p337
aV    2748 sppsvc.exe           0x000007fefef20000 True   True   True  \u005cWindows\u005cSystem32\u005cadvapi32.dll
p338
aV    2748 sppsvc.exe           0x000007fefd780000 True   True   True  \u005cWindows\u005cSystem32\u005cole32.dll
p339
aV    2748 sppsvc.exe           0x0000000076bd0000 True   True   True  \u005cWindows\u005cSystem32\u005ckernel32.dll
p340
aV    2748 sppsvc.exe           0x000007fefd5f0000 True   True   True  \u005cWindows\u005cSystem32\u005crpcrt4.dll
p341
aV    2748 sppsvc.exe           0x000007fefce00000 True   True   True  \u005cWindows\u005cSystem32\u005cKernelBase.dll
p342
aV    2748 sppsvc.exe           0x000007fefee10000 True   True   True  \u005cWindows\u005cSystem32\u005cgdi32.dll
p343
aV    2748 sppsvc.exe           0x000007fefcb40000 True   True   True  \u005cWindows\u005cSystem32\u005ccryptbase.dll
p344
aV    2776 svchost.exe          0x0000000072f10000 True   True   True  \u005cWindows\u005cSystem32\u005csfc.dll
p345
aV    2776 svchost.exe          0x0000000076cf0000 True   True   True  \u005cWindows\u005cSystem32\u005cntdll.dll
p346
aV    2776 svchost.exe          0x000007fef8320000 True   True   True  \u005cWindows\u005cSystem32\u005csfc_os.dll
p347
aV    2776 svchost.exe          0x000007fefce00000 True   True   True  \u005cWindows\u005cSystem32\u005cKernelBase.dll
p348
aV    2776 svchost.exe          0x000007fefdaa0000 True   True   True  \u005cWindows\u005cSystem32\u005cusp10.dll
p349
aV    2776 svchost.exe          0x000007fefd380000 True   True   True  \u005cWindows\u005cSystem32\u005cmsvcrt.dll
p350
aV    2776 svchost.exe          0x000007fefd990000 True   True   True  \u005cWindows\u005cSystem32\u005cmsctf.dll
p351
aV    2776 svchost.exe          0x000007fef37a0000 True   True   True  \u005cWindows\u005cSystem32\u005cwscapi.dll
p352
aV    2776 svchost.exe          0x000007fefd780000 True   True   True  \u005cWindows\u005cSystem32\u005cole32.dll
p353
aV    2776 svchost.exe          0x000007fef3dd0000 True   True   True  \u005cProgram Files\u005cWindows Defender\u005cMpSvc.dll
p354
aV    2776 svchost.exe          0x000007fefd5f0000 True   True   True  \u005cWindows\u005cSystem32\u005crpcrt4.dll
p355
aV    2776 svchost.exe          0x000007fefef20000 True   True   True  \u005cWindows\u005cSystem32\u005cadvapi32.dll
p356
aV    2776 svchost.exe          0x000007fefee10000 True   True   True  \u005cWindows\u005cSystem32\u005cgdi32.dll
p357
aV    2776 svchost.exe          0x000007fef3d40000 True   True   True  \u005cProgram Files\u005cWindows Defender\u005cMpClient.dll
p358
aV    2776 svchost.exe          0x000007fefd020000 True   True   True  \u005cWindows\u005cSystem32\u005ciertutil.dll
p359
aV    2776 svchost.exe          0x000007fefd440000 True   True   True  \u005cWindows\u005cSystem32\u005curlmon.dll
p360
aV    2776 svchost.exe          0x000007fefce70000 True   True   True  \u005cWindows\u005cSystem32\u005ccrypt32.dll
p361
aV    2776 svchost.exe          0x000007fefde90000 True   True   True  \u005cWindows\u005cSystem32\u005cshlwapi.dll
p362
aV    2776 svchost.exe          0x000007fefeca0000 True   True   True  \u005cWindows\u005cSystem32\u005cclbcatq.dll
p363
aV    2776 svchost.exe          0x000007fefbf70000 True   True   True  \u005cWindows\u005cSystem32\u005cgpapi.dll
p364
aV    2776 svchost.exe          0x0000000076ad0000 True   True   True  \u005cWindows\u005cSystem32\u005cuser32.dll
p365
aV    2776 svchost.exe          0x000007fefdf10000 True   True   True  \u005cWindows\u005cSystem32\u005cshell32.dll
p366
aV    2776 svchost.exe          0x000007fefed40000 True   True   True  \u005cWindows\u005cSystem32\u005cWldap32.dll
p367
aV    2776 svchost.exe          0x000007fefaf50000 True   True   True  \u005cWindows\u005cSystem32\u005cwtsapi32.dll
p368
aV    2776 svchost.exe          0x000007fefab70000 True   True   True  \u005cWindows\u005cSystem32\u005cntmarta.dll
p369
aV    2776 svchost.exe          0x000007fefbf90000 True   True   True  \u005cWindows\u005cSystem32\u005cuserenv.dll
p370
aV    2776 svchost.exe          0x000007fefbdc0000 True   True   True  \u005cWindows\u005cSystem32\u005cversion.dll
p371
aV    2776 svchost.exe          0x0000000076bd0000 True   True   True  \u005cWindows\u005cSystem32\u005ckernel32.dll
p372
aV    2776 svchost.exe          0x000007fefc1e0000 True   True   True  \u005cWindows\u005cSystem32\u005crsaenh.dll
p373
aV    2776 svchost.exe          0x000007fefcc50000 True   True   True  \u005cWindows\u005cSystem32\u005cprofapi.dll
p374
aV    2776 svchost.exe          0x000007fefd5c0000 True   True   True  \u005cWindows\u005cSystem32\u005cimm32.dll
p375
aV    2776 svchost.exe          0x000007fefd280000 True   True   True  \u005cWindows\u005cSystem32\u005csechost.dll
p376
aV    2776 svchost.exe          0x000007fefd2a0000 True   True   True  \u005cWindows\u005cSystem32\u005coleaut32.dll
p377
aV    2776 svchost.exe          0x000007fefd770000 True   True   True  \u005cWindows\u005cSystem32\u005clpk.dll
p378
aV    2776 svchost.exe          0x000007fefcdc0000 True   True   True  \u005cWindows\u005cSystem32\u005cwintrust.dll
p379
aV    2776 svchost.exe          0x00000000ff0d0000 True   False  True  \u005cWindows\u005cSystem32\u005csvchost.exe
p380
aV    2776 svchost.exe          0x000007fefccf0000 True   True   True  \u005cWindows\u005cSystem32\u005cmsasn1.dll
p381
aV    2988 slui.exe             0x0000000000170000 False  False  False \u005cWindows\u005cSystem32\u005cen-US\u005cslui.exe.mui
p382
aV    2988 slui.exe             0x0000000000230000 False  False  False \u005cWindows\u005cSystem32\u005cen-US\u005csppcommdlg.dll.mui
p383
aV    2988 slui.exe             0x000007fefd2a0000 True   True   True  \u005cWindows\u005cSystem32\u005coleaut32.dll
p384
aV    2988 slui.exe             0x000007fefcb40000 True   True   True  \u005cWindows\u005cSystem32\u005ccryptbase.dll
p385
aV    2988 slui.exe             0x000007fefdb70000 True   True   True  \u005cWindows\u005cSystem32\u005cnsi.dll
p386
aV    2988 slui.exe             0x0000000002d30000 False  False  False \u005cWindows\u005cSystem32\u005cimageres.dll
p387
aV    2988 slui.exe             0x000007fef2f60000 True   True   True  \u005cWindows\u005cSystem32\u005csppcommdlg.dll
p388
aV    2988 slui.exe             0x000007fefdaa0000 True   True   True  \u005cWindows\u005cSystem32\u005cusp10.dll
p389
aV    2988 slui.exe             0x000007fefd380000 True   True   True  \u005cWindows\u005cSystem32\u005cmsvcrt.dll
p390
aV    2988 slui.exe             0x000007fefd990000 True   True   True  \u005cWindows\u005cSystem32\u005cmsctf.dll
p391
aV    2988 slui.exe             0x000007fef8400000 True   True   True  \u005cWindows\u005cSystem32\u005cwinhttp.dll
p392
aV    2988 slui.exe             0x000007fefb1b0000 True   True   True  \u005cWindows\u005cSystem32\u005cduser.dll
p393
aV    2988 slui.exe             0x000007fefb0f0000 True   True   True  \u005cWindows\u005cSystem32\u005cdwmapi.dll
p394
aV    2988 slui.exe             0x000007fefd780000 True   True   True  \u005cWindows\u005cSystem32\u005cole32.dll
p395
aV    2988 slui.exe             0x000007fefcfe0000 True   True   True  \u005cWindows\u005cSystem32\u005ccfgmgr32.dll
p396
aV    2988 slui.exe             0x000007fefd5f0000 True   True   True  \u005cWindows\u005cSystem32\u005crpcrt4.dll
p397
aV    2988 slui.exe             0x000007fef6000000 True   True   True  \u005cWindows\u005cSystem32\u005crasman.dll
p398
aV    2988 slui.exe             0x000007fefee10000 True   True   True  \u005cWindows\u005cSystem32\u005cgdi32.dll
p399
aV    2988 slui.exe             0x0000000000220000 False  False  False \u005cWindows\u005cSystem32\u005cstdole2.tlb
p400
aV    2988 slui.exe             0x000007fef6020000 True   True   True  \u005cWindows\u005cSystem32\u005crasapi32.dll
p401
aV    2988 slui.exe             0x000007fefce70000 True   True   True  \u005cWindows\u005cSystem32\u005ccrypt32.dll
p402
aV    2988 slui.exe             0x000007fefd440000 True   True   True  \u005cWindows\u005cSystem32\u005curlmon.dll
p403
aV    2988 slui.exe             0x00000000ffa50000 True   False  True  \u005cWindows\u005cSystem32\u005cslui.exe
p404
aV    2988 slui.exe             0x000007fefcb50000 True   True   True  \u005cWindows\u005cSystem32\u005csxs.dll
p405
aV    2988 slui.exe             0x000007fefde90000 True   True   True  \u005cWindows\u005cSystem32\u005cshlwapi.dll
p406
aV    2988 slui.exe             0x000007fefccf0000 True   True   True  \u005cWindows\u005cSystem32\u005cmsasn1.dll
p407
aV    2988 slui.exe             0x000007fef2f20000 True   True   True  \u005cWindows\u005cSystem32\u005csppcomapi.dll
p408
aV    2988 slui.exe             0x0000000076ad0000 True   True   True  \u005cWindows\u005cSystem32\u005cuser32.dll
p409
aV    2988 slui.exe             0x000007fefd720000 True   True   True  \u005cWindows\u005cSystem32\u005cws2_32.dll
p410
aV    2988 slui.exe             0x000007fef90e0000 True   True   True  \u005cWindows\u005cSystem32\u005cwinbrand.dll
p411
aV    2988 slui.exe             0x000007fefb900000 True   True   True  \u005cWindows\u005cSystem32\u005ccryptui.dll
p412
aV    2988 slui.exe             0x000007fef3000000 True   True   True  \u005cWindows\u005cSystem32\u005cslwga.dll
p413
aV    2988 slui.exe             0x000007fefdf10000 True   True   True  \u005cWindows\u005cSystem32\u005cshell32.dll
p414
aV    2988 slui.exe             0x000007fefb520000 True   True   True  \u005cWindows\u005cSystem32\u005cuxtheme.dll
p415
aV    2988 slui.exe             0x000007fef2b30000 True   True   True  \u005cWindows\u005cSystem32\u005csppcext.dll
p416
aV    2988 slui.exe             0x000007fefaf50000 True   True   True  \u005cWindows\u005cSystem32\u005cwtsapi32.dll
p417
aV    2988 slui.exe             0x000007fefd770000 True   True   True  \u005cWindows\u005cSystem32\u005clpk.dll
p418
aV    2988 slui.exe             0x000007fef8390000 True   True   True  \u005cWindows\u005cSystem32\u005cwebio.dll
p419
aV    2988 slui.exe             0x000007fefeca0000 True   True   True  \u005cWindows\u005cSystem32\u005cclbcatq.dll
p420
aV    2988 slui.exe             0x000007fefa7b0000 True   True   True  \u005cWindows\u005cSystem32\u005cslc.dll
p421
aV    2988 slui.exe             0x000007fefd5c0000 True   True   True  \u005cWindows\u005cSystem32\u005cimm32.dll
p422
aV    2988 slui.exe             0x0000000076bd0000 True   True   True  \u005cWindows\u005cSystem32\u005ckernel32.dll
p423
aV    2988 slui.exe             0x000007fefc1e0000 True   True   True  \u005cWindows\u005cSystem32\u005crsaenh.dll
p424
aV    2988 slui.exe             0x000007fefce00000 True   True   True  \u005cWindows\u005cSystem32\u005cKernelBase.dll
p425
aV    2988 slui.exe             0x000007fefc4e0000 True   True   True  \u005cWindows\u005cSystem32\u005ccryptsp.dll
p426
aV    2988 slui.exe             0x000007fef2fd0000 True   True   True  \u005cWindows\u005cSystem32\u005csppc.dll
p427
aV    2988 slui.exe             0x00000000002b0000 False  False  False \u005cWindows\u005cwinsxs\u005camd64_microsoft.windows.c..-controls.resources_6595b64144ccf1df_6.0.7600.16385_en-us_106f9be843a9b4e3\u005ccomctl32.dll.mui
p428
aV    2988 slui.exe             0x000007fefcd00000 True   True   True  \u005cWindows\u005cSystem32\u005cdevobj.dll
p429
aV    2988 slui.exe             0x000007fefcc30000 True   True   True  \u005cWindows\u005cSystem32\u005cRpcRtRemote.dll
p430
aV    2988 slui.exe             0x0000000000240000 False  False  False \u005cWindows\u005cSystem32\u005cen-US\u005cduser.dll.mui
p431
aV    2988 slui.exe             0x000007fef92e0000 True   True   True  \u005cWindows\u005cSystem32\u005cmsi.dll
p432
aV    2988 slui.exe             0x000007fefef20000 True   True   True  \u005cWindows\u005cSystem32\u005cadvapi32.dll
p433
aV    2988 slui.exe             0x000007fefd280000 True   True   True  \u005cWindows\u005cSystem32\u005csechost.dll
p434
aV    2988 slui.exe             0x000007fef2ea0000 True   True   True  \u005cWindows\u005cSystem32\u005ctapi32.dll
p435
aV    2988 slui.exe             0x000007fefd020000 True   True   True  \u005cWindows\u005cSystem32\u005ciertutil.dll
p436
aV    2988 slui.exe             0x000007fefdcb0000 True   True   True  \u005cWindows\u005cSystem32\u005csetupapi.dll
p437
aV    2988 slui.exe             0x000007fef2ee0000 True   True   True  \u005cWindows\u005cSystem32\u005cWinSCard.dll
p438
aV    2988 slui.exe             0x0000000076cf0000 True   True   True  \u005cWindows\u005cSystem32\u005cntdll.dll
p439
aV    2988 slui.exe             0x000007fefb700000 True   True   True  \u005cWindows\u005cwinsxs\u005camd64_microsoft.windows.common-controls_6595b64144ccf1df_6.0.7600.16385_none_fa645303170382f6\u005ccomctl32.dll
p440
aV    1852 WmiPrvSE.exe         0x0000000076ad0000 True   True   True  \u005cWindows\u005cSystem32\u005cuser32.dll
p441
aV    1852 WmiPrvSE.exe         0x0000000076cf0000 True   True   True  \u005cWindows\u005cSystem32\u005cntdll.dll
p442
aV    1852 WmiPrvSE.exe         0x000007fefcb40000 True   True   True  \u005cWindows\u005cSystem32\u005ccryptbase.dll
p443
aV    1852 WmiPrvSE.exe         0x000007fefee10000 True   True   True  \u005cWindows\u005cSystem32\u005cgdi32.dll
p444
aV    1852 WmiPrvSE.exe         0x000007fef2130000 True   True   True  \u005cWindows\u005cSystem32\u005cwbem\u005cwmiprov.dll
p445
aV    1852 WmiPrvSE.exe         0x000007fefdaa0000 True   True   True  \u005cWindows\u005cSystem32\u005cusp10.dll
p446
aV    1852 WmiPrvSE.exe         0x00000000ffb80000 True   False  True  \u005cWindows\u005cSystem32\u005cwbem\u005cWmiPrvSE.exe
p447
aV    1852 WmiPrvSE.exe         0x000007fefd990000 True   True   True  \u005cWindows\u005cSystem32\u005cmsctf.dll
p448
aV    1852 WmiPrvSE.exe         0x000007fefd380000 True   True   True  \u005cWindows\u005cSystem32\u005cmsvcrt.dll
p449
aV    1852 WmiPrvSE.exe         0x000007fef77c0000 True   True   True  \u005cWindows\u005cSystem32\u005cncobjapi.dll
p450
aV    1852 WmiPrvSE.exe         0x000007fefd5f0000 True   True   True  \u005cWindows\u005cSystem32\u005crpcrt4.dll
p451
aV    1852 WmiPrvSE.exe         0x000007fefab70000 True   True   True  \u005cWindows\u005cSystem32\u005cntmarta.dll
p452
aV    1852 WmiPrvSE.exe         0x000007fefd2a0000 True   True   True  \u005cWindows\u005cSystem32\u005coleaut32.dll
p453
aV    1852 WmiPrvSE.exe         0x000007fef8040000 True   True   True  \u005cWindows\u005cSystem32\u005cwbemcomn.dll
p454
aV    1852 WmiPrvSE.exe         0x000007fefeca0000 True   True   True  \u005cWindows\u005cSystem32\u005cclbcatq.dll
p455
aV    1852 WmiPrvSE.exe         0x000007fef7cc0000 True   True   True  \u005cWindows\u005cSystem32\u005cntdsapi.dll
p456
aV    1852 WmiPrvSE.exe         0x000007fefd720000 True   True   True  \u005cWindows\u005cSystem32\u005cws2_32.dll
p457
aV    1852 WmiPrvSE.exe         0x000007fefc4e0000 True   True   True  \u005cWindows\u005cSystem32\u005ccryptsp.dll
p458
aV    1852 WmiPrvSE.exe         0x000007fef7920000 True   True   True  \u005cWindows\u005cSystem32\u005cwbem\u005cwmiutils.dll
p459
aV    1852 WmiPrvSE.exe         0x000007fefed40000 True   True   True  \u005cWindows\u005cSystem32\u005cWldap32.dll
p460
aV    1852 WmiPrvSE.exe         0x000007fefd770000 True   True   True  \u005cWindows\u005cSystem32\u005clpk.dll
p461
aV    1852 WmiPrvSE.exe         0x000007fefdb70000 True   True   True  \u005cWindows\u005cSystem32\u005cnsi.dll
p462
aV    1852 WmiPrvSE.exe         0x000007fefd5c0000 True   True   True  \u005cWindows\u005cSystem32\u005cimm32.dll
p463
aV    1852 WmiPrvSE.exe         0x0000000076bd0000 True   True   True  \u005cWindows\u005cSystem32\u005ckernel32.dll
p464
aV    1852 WmiPrvSE.exe         0x000007fefc1e0000 True   True   True  \u005cWindows\u005cSystem32\u005crsaenh.dll
p465
aV    1852 WmiPrvSE.exe         0x000007fefce00000 True   True   True  \u005cWindows\u005cSystem32\u005cKernelBase.dll
p466
aV    1852 WmiPrvSE.exe         0x000007fef7cf0000 True   True   True  \u005cWindows\u005cSystem32\u005cwbem\u005cfastprox.dll
p467
aV    1852 WmiPrvSE.exe         0x000007fefcc30000 True   True   True  \u005cWindows\u005cSystem32\u005cRpcRtRemote.dll
p468
aV    1852 WmiPrvSE.exe         0x000007fefd780000 True   True   True  \u005cWindows\u005cSystem32\u005cole32.dll
p469
aV    1852 WmiPrvSE.exe         0x000007fef7a40000 True   True   True  \u005cWindows\u005cSystem32\u005cwbem\u005cwbemsvc.dll
p470
aV    1852 WmiPrvSE.exe         0x000007fefd280000 True   True   True  \u005cWindows\u005cSystem32\u005csechost.dll
p471
aV    1852 WmiPrvSE.exe         0x000007fefef20000 True   True   True  \u005cWindows\u005cSystem32\u005cadvapi32.dll
p472
aV    1852 WmiPrvSE.exe         0x000007fef7cb0000 True   True   True  \u005cWindows\u005cSystem32\u005cwbem\u005cwbemprox.dll
p473
assVenvars
p474
(dp475
VRemoved Entries
p476
(lp477
V    1372 reader_sl.exe        0x00000000001f1320 ALLUSERSPROFILE                C:\u005cProgramData
p478
aV    1372 reader_sl.exe        0x00000000001f1320 APPDATA                        C:\u005cUsers\u005clophi\u005cAppData\u005cRoaming
p479
aV    1372 reader_sl.exe        0x00000000001f1320 CommonProgramFiles             C:\u005cProgram Files\u005cCommon Files
p480
aV    1372 reader_sl.exe        0x00000000001f1320 CommonProgramFiles(x86)        C:\u005cProgram Files (x86)\u005cCommon Files
p481
aV    1372 reader_sl.exe        0x00000000001f1320 CommonProgramW6432             C:\u005cProgram Files\u005cCommon Files
p482
aV    1372 reader_sl.exe        0x00000000001f1320 COMPUTERNAME                   LOPHI-PC
p483
aV    1372 reader_sl.exe        0x00000000001f1320 ComSpec                        C:\u005cWindows\u005csystem32\u005ccmd.exe
p484
aV    1372 reader_sl.exe        0x00000000001f1320 FP_NO_HOST_CHECK               NO
p485
aV    1372 reader_sl.exe        0x00000000001f1320 HOMEDRIVE                      C:
p486
aV    1372 reader_sl.exe        0x00000000001f1320 HOMEPATH                       \u005cUsers\u005clophi
p487
aV    1372 reader_sl.exe        0x00000000001f1320 LOCALAPPDATA                   C:\u005cUsers\u005clophi\u005cAppData\u005cLocal
p488
aV    1372 reader_sl.exe        0x00000000001f1320 LOGONSERVER                    \u005c\u005cLOPHI-PC
p489
aV    1372 reader_sl.exe        0x00000000001f1320 NUMBER_OF_PROCESSORS           1
p490
aV    1372 reader_sl.exe        0x00000000001f1320 OS                             Windows_NT
p491
aV    1372 reader_sl.exe        0x00000000001f1320 Path                           C:\u005cWindows\u005csystem32;C:\u005cWindows;C:\u005cWindows\u005cSystem32\u005cWbem;C:\u005cWindows\u005cSystem32\u005cWindowsPowerShell\u005cv1.0\u005c;C:\u005cPython27
p492
aV    1372 reader_sl.exe        0x00000000001f1320 PATHEXT                        .COM;.EXE;.BAT;.CMD;.VBS;.VBE;.JS;.JSE;.WSF;.WSH;.MSC
p493
aV    1372 reader_sl.exe        0x00000000001f1320 PROCESSOR_ARCHITECTURE         AMD64
p494
aV    1372 reader_sl.exe        0x00000000001f1320 PROCESSOR_IDENTIFIER           Intel64 Family 6 Model 6 Stepping 3, GenuineIntel
p495
aV    1372 reader_sl.exe        0x00000000001f1320 PROCESSOR_LEVEL                6
p496
aV    1372 reader_sl.exe        0x00000000001f1320 PROCESSOR_REVISION             0603
p497
aV    1372 reader_sl.exe        0x00000000001f1320 ProgramData                    C:\u005cProgramData
p498
aV    1372 reader_sl.exe        0x00000000001f1320 ProgramFiles                   C:\u005cProgram Files
p499
aV    1372 reader_sl.exe        0x00000000001f1320 ProgramFiles(x86)              C:\u005cProgram Files (x86)
p500
aV    1372 reader_sl.exe        0x00000000001f1320 ProgramW6432                   C:\u005cProgram Files
p501
aV    1372 reader_sl.exe        0x00000000001f1320 PSModulePath                   C:\u005cWindows\u005csystem32\u005cWindowsPowerShell\u005cv1.0\u005cModules\u005c
p502
aV    1372 reader_sl.exe        0x00000000001f1320 PUBLIC                         C:\u005cUsers\u005cPublic
p503
aV    1372 reader_sl.exe        0x00000000001f1320 SESSIONNAME                    Console
p504
aV    1372 reader_sl.exe        0x00000000001f1320 SystemDrive                    C:
p505
aV    1372 reader_sl.exe        0x00000000001f1320 SystemRoot                     C:\u005cWindows
p506
aV    1372 reader_sl.exe        0x00000000001f1320 TEMP                           C:\u005cUsers\u005clophi\u005cAppData\u005cLocal\u005cTemp
p507
aV    1372 reader_sl.exe        0x00000000001f1320 TMP                            C:\u005cUsers\u005clophi\u005cAppData\u005cLocal\u005cTemp
p508
aV    1372 reader_sl.exe        0x00000000001f1320 USERDOMAIN                     lophi-PC
p509
aV    1372 reader_sl.exe        0x00000000001f1320 USERNAME                       lophi
p510
aV    1372 reader_sl.exe        0x00000000001f1320 USERPROFILE                    C:\u005cUsers\u005clophi
p511
aV    1372 reader_sl.exe        0x00000000001f1320 windir                         C:\u005cWindows
p512
aV    1884 SearchFilterHo       0x0000000000251320 ALLUSERSPROFILE                C:\u005cProgramData
p513
aV    1884 SearchFilterHo       0x0000000000251320 APPDATA                        C:\u005cWindows\u005csystem32\u005cconfig\u005csystemprofile\u005cAppData\u005cRoaming
p514
aV    1884 SearchFilterHo       0x0000000000251320 CommonProgramFiles             C:\u005cProgram Files\u005cCommon Files
p515
aV    1884 SearchFilterHo       0x0000000000251320 CommonProgramFiles(x86)        C:\u005cProgram Files (x86)\u005cCommon Files
p516
aV    1884 SearchFilterHo       0x0000000000251320 CommonProgramW6432             C:\u005cProgram Files\u005cCommon Files
p517
aV    1884 SearchFilterHo       0x0000000000251320 COMPUTERNAME                   LOPHI-PC
p518
aV    1884 SearchFilterHo       0x0000000000251320 ComSpec                        C:\u005cWindows\u005csystem32\u005ccmd.exe
p519
aV    1884 SearchFilterHo       0x0000000000251320 FP_NO_HOST_CHECK               NO
p520
aV    1884 SearchFilterHo       0x0000000000251320 LOCALAPPDATA                   C:\u005cWindows\u005csystem32\u005cconfig\u005csystemprofile\u005cAppData\u005cLocal
p521
aV    1884 SearchFilterHo       0x0000000000251320 NUMBER_OF_PROCESSORS           1
p522
aV    1884 SearchFilterHo       0x0000000000251320 OS                             Windows_NT
p523
aV    1884 SearchFilterHo       0x0000000000251320 Path                           C:\u005cWindows\u005csystem32;C:\u005cWindows;C:\u005cWindows\u005cSystem32\u005cWbem;C:\u005cWindows\u005cSystem32\u005cWindowsPowerShell\u005cv1.0\u005c;C:\u005cPython27;C:\u005cWindows\u005csystem32
p524
aV    1884 SearchFilterHo       0x0000000000251320 PATHEXT                        .COM;.EXE;.BAT;.CMD;.VBS;.VBE;.JS;.JSE;.WSF;.WSH;.MSC
p525
aV    1884 SearchFilterHo       0x0000000000251320 PROCESSOR_ARCHITECTURE         AMD64
p526
aV    1884 SearchFilterHo       0x0000000000251320 PROCESSOR_IDENTIFIER           Intel64 Family 6 Model 6 Stepping 3, GenuineIntel
p527
aV    1884 SearchFilterHo       0x0000000000251320 PROCESSOR_LEVEL                6
p528
aV    1884 SearchFilterHo       0x0000000000251320 PROCESSOR_REVISION             0603
p529
aV    1884 SearchFilterHo       0x0000000000251320 ProgramData                    C:\u005cProgramData
p530
aV    1884 SearchFilterHo       0x0000000000251320 ProgramFiles                   C:\u005cProgram Files
p531
aV    1884 SearchFilterHo       0x0000000000251320 ProgramFiles(x86)              C:\u005cProgram Files (x86)
p532
aV    1884 SearchFilterHo       0x0000000000251320 ProgramW6432                   C:\u005cProgram Files
p533
aV    1884 SearchFilterHo       0x0000000000251320 PSModulePath                   C:\u005cWindows\u005csystem32\u005cWindowsPowerShell\u005cv1.0\u005cModules\u005c
p534
aV    1884 SearchFilterHo       0x0000000000251320 PUBLIC                         C:\u005cUsers\u005cPublic
p535
aV    1884 SearchFilterHo       0x0000000000251320 SystemDrive                    C:
p536
aV    1884 SearchFilterHo       0x0000000000251320 SystemRoot                     C:\u005cWindows
p537
aV    1884 SearchFilterHo       0x0000000000251320 TEMP                           C:\u005cProgramData\u005cMicrosoft\u005cSearch\u005cData\u005cTemp\u005cusgthrsvc
p538
aV    1884 SearchFilterHo       0x0000000000251320 TMP                            C:\u005cProgramData\u005cMicrosoft\u005cSearch\u005cData\u005cTemp\u005cusgthrsvc
p539
aV    1884 SearchFilterHo       0x0000000000251320 USERDOMAIN                     WORKGROUP
p540
aV    1884 SearchFilterHo       0x0000000000251320 USERNAME                       LOPHI-PC$
p541
aV    1884 SearchFilterHo       0x0000000000251320 USERPROFILE                    C:\u005cWindows\u005csystem32\u005cconfig\u005csystemprofile
p542
aV    1884 SearchFilterHo       0x0000000000251320 windir                         C:\u005cWindows
p543
aV     608 SearchProtocol       0x0000000000331320 ALLUSERSPROFILE                C:\u005cProgramData
p544
aV     608 SearchProtocol       0x0000000000331320 APPDATA                        C:\u005cWindows\u005csystem32\u005cconfig\u005csystemprofile\u005cAppData\u005cRoaming
p545
aV     608 SearchProtocol       0x0000000000331320 CommonProgramFiles             C:\u005cProgram Files\u005cCommon Files
p546
aV     608 SearchProtocol       0x0000000000331320 CommonProgramFiles(x86)        C:\u005cProgram Files (x86)\u005cCommon Files
p547
aV     608 SearchProtocol       0x0000000000331320 CommonProgramW6432             C:\u005cProgram Files\u005cCommon Files
p548
aV     608 SearchProtocol       0x0000000000331320 COMPUTERNAME                   LOPHI-PC
p549
aV     608 SearchProtocol       0x0000000000331320 ComSpec                        C:\u005cWindows\u005csystem32\u005ccmd.exe
p550
aV     608 SearchProtocol       0x0000000000331320 FP_NO_HOST_CHECK               NO
p551
aV     608 SearchProtocol       0x0000000000331320 LOCALAPPDATA                   C:\u005cWindows\u005csystem32\u005cconfig\u005csystemprofile\u005cAppData\u005cLocal
p552
aV     608 SearchProtocol       0x0000000000331320 NUMBER_OF_PROCESSORS           1
p553
aV     608 SearchProtocol       0x0000000000331320 OS                             Windows_NT
p554
aV     608 SearchProtocol       0x0000000000331320 Path                           C:\u005cWindows\u005csystem32;C:\u005cWindows;C:\u005cWindows\u005cSystem32\u005cWbem;C:\u005cWindows\u005cSystem32\u005cWindowsPowerShell\u005cv1.0\u005c;C:\u005cPython27;C:\u005cWindows\u005csystem32
p555
aV     608 SearchProtocol       0x0000000000331320 PATHEXT                        .COM;.EXE;.BAT;.CMD;.VBS;.VBE;.JS;.JSE;.WSF;.WSH;.MSC
p556
aV     608 SearchProtocol       0x0000000000331320 PROCESSOR_ARCHITECTURE         AMD64
p557
aV     608 SearchProtocol       0x0000000000331320 PROCESSOR_IDENTIFIER           Intel64 Family 6 Model 6 Stepping 3, GenuineIntel
p558
aV     608 SearchProtocol       0x0000000000331320 PROCESSOR_LEVEL                6
p559
aV     608 SearchProtocol       0x0000000000331320 PROCESSOR_REVISION             0603
p560
aV     608 SearchProtocol       0x0000000000331320 ProgramData                    C:\u005cProgramData
p561
aV     608 SearchProtocol       0x0000000000331320 ProgramFiles                   C:\u005cProgram Files
p562
aV     608 SearchProtocol       0x0000000000331320 ProgramFiles(x86)              C:\u005cProgram Files (x86)
p563
aV     608 SearchProtocol       0x0000000000331320 ProgramW6432                   C:\u005cProgram Files
p564
aV     608 SearchProtocol       0x0000000000331320 PSModulePath                   C:\u005cWindows\u005csystem32\u005cWindowsPowerShell\u005cv1.0\u005cModules\u005c
p565
aV     608 SearchProtocol       0x0000000000331320 PUBLIC                         C:\u005cUsers\u005cPublic
p566
aV     608 SearchProtocol       0x0000000000331320 SystemDrive                    C:
p567
aV     608 SearchProtocol       0x0000000000331320 SystemRoot                     C:\u005cWindows
p568
aV     608 SearchProtocol       0x0000000000331320 TEMP                           C:\u005cProgramData\u005cMicrosoft\u005cSearch\u005cData\u005cTemp\u005cusgthrsvc
p569
aV     608 SearchProtocol       0x0000000000331320 TMP                            C:\u005cProgramData\u005cMicrosoft\u005cSearch\u005cData\u005cTemp\u005cusgthrsvc
p570
aV     608 SearchProtocol       0x0000000000331320 USERDOMAIN                     WORKGROUP
p571
aV     608 SearchProtocol       0x0000000000331320 USERNAME                       LOPHI-PC$
p572
aV     608 SearchProtocol       0x0000000000331320 USERPROFILE                    C:\u005cWindows\u005csystem32\u005cconfig\u005csystemprofile
p573
aV     608 SearchProtocol       0x0000000000331320 windir                         C:\u005cWindows
p574
aV    2308 cmd.exe              0x000000000042c2c0 ALLUSERSPROFILE                C:\u005cProgramData
p575
aV    2308 cmd.exe              0x000000000042c2c0 APPDATA                        C:\u005cUsers\u005clophi\u005cAppData\u005cRoaming
p576
aV    2308 cmd.exe              0x000000000042c2c0 CommonProgramFiles             C:\u005cProgram Files\u005cCommon Files
p577
aV    2308 cmd.exe              0x000000000042c2c0 CommonProgramFiles(x86)        C:\u005cProgram Files (x86)\u005cCommon Files
p578
aV    2308 cmd.exe              0x000000000042c2c0 CommonProgramW6432             C:\u005cProgram Files\u005cCommon Files
p579
aV    2308 cmd.exe              0x000000000042c2c0 COMPUTERNAME                   LOPHI-PC
p580
aV    2308 cmd.exe              0x000000000042c2c0 ComSpec                        C:\u005cWindows\u005csystem32\u005ccmd.exe
p581
aV    2308 cmd.exe              0x000000000042c2c0 FP_NO_HOST_CHECK               NO
p582
aV    2308 cmd.exe              0x000000000042c2c0 HOMEDRIVE                      C:
p583
aV    2308 cmd.exe              0x000000000042c2c0 HOMEPATH                       \u005cUsers\u005clophi
p584
aV    2308 cmd.exe              0x000000000042c2c0 LOCALAPPDATA                   C:\u005cUsers\u005clophi\u005cAppData\u005cLocal
p585
aV    2308 cmd.exe              0x000000000042c2c0 LOGONSERVER                    \u005c\u005cLOPHI-PC
p586
aV    2308 cmd.exe              0x000000000042c2c0 NUMBER_OF_PROCESSORS           1
p587
aV    2308 cmd.exe              0x000000000042c2c0 OS                             Windows_NT
p588
aV    2308 cmd.exe              0x000000000042c2c0 Path                           C:\u005cWindows\u005csystem32;C:\u005cWindows;C:\u005cWindows\u005cSystem32\u005cWbem;C:\u005cWindows\u005cSystem32\u005cWindowsPowerShell\u005cv1.0\u005c;C:\u005cPython27
p589
aV    2308 cmd.exe              0x000000000042c2c0 PATHEXT                        .COM;.EXE;.BAT;.CMD;.VBS;.VBE;.JS;.JSE;.WSF;.WSH;.MSC
p590
aV    2308 cmd.exe              0x000000000042c2c0 PROCESSOR_ARCHITECTURE         AMD64
p591
aV    2308 cmd.exe              0x000000000042c2c0 PROCESSOR_IDENTIFIER           Intel64 Family 6 Model 6 Stepping 3, GenuineIntel
p592
aV    2308 cmd.exe              0x000000000042c2c0 PROCESSOR_LEVEL                6
p593
aV    2308 cmd.exe              0x000000000042c2c0 PROCESSOR_REVISION             0603
p594
aV    2308 cmd.exe              0x000000000042c2c0 ProgramData                    C:\u005cProgramData
p595
aV    2308 cmd.exe              0x000000000042c2c0 ProgramFiles                   C:\u005cProgram Files
p596
aV    2308 cmd.exe              0x000000000042c2c0 ProgramFiles(x86)              C:\u005cProgram Files (x86)
p597
aV    2308 cmd.exe              0x000000000042c2c0 ProgramW6432                   C:\u005cProgram Files
p598
aV    2308 cmd.exe              0x000000000042c2c0 PROMPT                         $P$G
p599
aV    2308 cmd.exe              0x000000000042c2c0 PSModulePath                   C:\u005cWindows\u005csystem32\u005cWindowsPowerShell\u005cv1.0\u005cModules\u005c
p600
aV    2308 cmd.exe              0x000000000042c2c0 PUBLIC                         C:\u005cUsers\u005cPublic
p601
aV    2308 cmd.exe              0x000000000042c2c0 SESSIONNAME                    Console
p602
aV    2308 cmd.exe              0x000000000042c2c0 SystemDrive                    C:
p603
aV    2308 cmd.exe              0x000000000042c2c0 SystemRoot                     C:\u005cWindows
p604
aV    2308 cmd.exe              0x000000000042c2c0 TEMP                           C:\u005cUsers\u005clophi\u005cAppData\u005cLocal\u005cTemp
p605
aV    2308 cmd.exe              0x000000000042c2c0 TMP                            C:\u005cUsers\u005clophi\u005cAppData\u005cLocal\u005cTemp
p606
aV    2308 cmd.exe              0x000000000042c2c0 USERDOMAIN                     lophi-PC
p607
aV    2308 cmd.exe              0x000000000042c2c0 USERNAME                       lophi
p608
aV    2308 cmd.exe              0x000000000042c2c0 USERPROFILE                    C:\u005cUsers\u005clophi
p609
aV    2308 cmd.exe              0x000000000042c2c0 windir                         C:\u005cWindows
p610
aV    2316 conhost.exe          0x000000000036d7a0 CommonProgramFiles             C:\u005cProgram Files\u005cCommon Files
p611
aV    2316 conhost.exe          0x000000000036d7a0 CommonProgramFiles(x86)        C:\u005cProgram Files (x86)\u005cCommon Files
p612
aV    2316 conhost.exe          0x000000000036d7a0 CommonProgramW6432             C:\u005cProgram Files\u005cCommon Files
p613
aV    2316 conhost.exe          0x000000000036d7a0 ComSpec                        C:\u005cWindows\u005csystem32\u005ccmd.exe
p614
aV    2316 conhost.exe          0x000000000036d7a0 FP_NO_HOST_CHECK               NO
p615
aV    2316 conhost.exe          0x000000000036d7a0 NUMBER_OF_PROCESSORS           1
p616
aV    2316 conhost.exe          0x000000000036d7a0 OS                             Windows_NT
p617
aV    2316 conhost.exe          0x000000000036d7a0 Path                           C:\u005cWindows\u005csystem32;C:\u005cWindows;C:\u005cWindows\u005cSystem32\u005cWbem;C:\u005cWindows\u005cSystem32\u005cWindowsPowerShell\u005cv1.0\u005c;C:\u005cPython27
p618
aV    2316 conhost.exe          0x000000000036d7a0 PATHEXT                        .COM;.EXE;.BAT;.CMD;.VBS;.VBE;.JS;.JSE;.WSF;.WSH;.MSC
p619
aV    2316 conhost.exe          0x000000000036d7a0 PROCESSOR_ARCHITECTURE         AMD64
p620
aV    2316 conhost.exe          0x000000000036d7a0 PROCESSOR_IDENTIFIER           Intel64 Family 6 Model 6 Stepping 3, GenuineIntel
p621
aV    2316 conhost.exe          0x000000000036d7a0 PROCESSOR_LEVEL                6
p622
aV    2316 conhost.exe          0x000000000036d7a0 PROCESSOR_REVISION             0603
p623
aV    2316 conhost.exe          0x000000000036d7a0 ProgramFiles                   C:\u005cProgram Files
p624
aV    2316 conhost.exe          0x000000000036d7a0 ProgramFiles(x86)              C:\u005cProgram Files (x86)
p625
aV    2316 conhost.exe          0x000000000036d7a0 ProgramW6432                   C:\u005cProgram Files
p626
aV    2316 conhost.exe          0x000000000036d7a0 PSModulePath                   C:\u005cWindows\u005csystem32\u005cWindowsPowerShell\u005cv1.0\u005cModules\u005c
p627
aV    2316 conhost.exe          0x000000000036d7a0 SystemDrive                    C:
p628
aV    2316 conhost.exe          0x000000000036d7a0 SystemRoot                     C:\u005cWindows
p629
aV    2316 conhost.exe          0x000000000036d7a0 TEMP                           C:\u005cWindows\u005cTEMP
p630
aV    2316 conhost.exe          0x000000000036d7a0 TMP                            C:\u005cWindows\u005cTEMP
p631
aV    2316 conhost.exe          0x000000000036d7a0 USERNAME                       SYSTEM
p632
aV    2316 conhost.exe          0x000000000036d7a0 windir                         C:\u005cWindows
p633
asVAdded Entries
p634
(lp635
V    2748 sppsvc.exe           0x0000000000301320 ALLUSERSPROFILE                C:\u005cProgramData
p636
aV    2748 sppsvc.exe           0x0000000000301320 APPDATA                        C:\u005cWindows\u005cServiceProfiles\u005cNetworkService\u005cAppData\u005cRoaming
p637
aV    2748 sppsvc.exe           0x0000000000301320 CommonProgramFiles             C:\u005cProgram Files\u005cCommon Files
p638
aV    2748 sppsvc.exe           0x0000000000301320 CommonProgramFiles(x86)        C:\u005cProgram Files (x86)\u005cCommon Files
p639
aV    2748 sppsvc.exe           0x0000000000301320 CommonProgramW6432             C:\u005cProgram Files\u005cCommon Files
p640
aV    2748 sppsvc.exe           0x0000000000301320 COMPUTERNAME                   LOPHI-PC
p641
aV    2748 sppsvc.exe           0x0000000000301320 ComSpec                        C:\u005cWindows\u005csystem32\u005ccmd.exe
p642
aV    2748 sppsvc.exe           0x0000000000301320 FP_NO_HOST_CHECK               NO
p643
aV    2748 sppsvc.exe           0x0000000000301320 LOCALAPPDATA                   C:\u005cWindows\u005cServiceProfiles\u005cNetworkService\u005cAppData\u005cLocal
p644
aV    2748 sppsvc.exe           0x0000000000301320 NUMBER_OF_PROCESSORS           1
p645
aV    2748 sppsvc.exe           0x0000000000301320 OS                             Windows_NT
p646
aV    2748 sppsvc.exe           0x0000000000301320 Path                           C:\u005cWindows\u005csystem32;C:\u005cWindows;C:\u005cWindows\u005cSystem32\u005cWbem;C:\u005cWindows\u005cSystem32\u005cWindowsPowerShell\u005cv1.0\u005c;C:\u005cPython27
p647
aV    2748 sppsvc.exe           0x0000000000301320 PATHEXT                        .COM;.EXE;.BAT;.CMD;.VBS;.VBE;.JS;.JSE;.WSF;.WSH;.MSC
p648
aV    2748 sppsvc.exe           0x0000000000301320 PROCESSOR_ARCHITECTURE         AMD64
p649
aV    2748 sppsvc.exe           0x0000000000301320 PROCESSOR_IDENTIFIER           Intel64 Family 6 Model 6 Stepping 3, GenuineIntel
p650
aV    2748 sppsvc.exe           0x0000000000301320 PROCESSOR_LEVEL                6
p651
aV    2748 sppsvc.exe           0x0000000000301320 PROCESSOR_REVISION             0603
p652
aV    2748 sppsvc.exe           0x0000000000301320 ProgramData                    C:\u005cProgramData
p653
aV    2748 sppsvc.exe           0x0000000000301320 ProgramFiles                   C:\u005cProgram Files
p654
aV    2748 sppsvc.exe           0x0000000000301320 ProgramFiles(x86)              C:\u005cProgram Files (x86)
p655
aV    2748 sppsvc.exe           0x0000000000301320 ProgramW6432                   C:\u005cProgram Files
p656
aV    2748 sppsvc.exe           0x0000000000301320 PSModulePath                   C:\u005cWindows\u005csystem32\u005cWindowsPowerShell\u005cv1.0\u005cModules\u005c
p657
aV    2748 sppsvc.exe           0x0000000000301320 PUBLIC                         C:\u005cUsers\u005cPublic
p658
aV    2748 sppsvc.exe           0x0000000000301320 SystemDrive                    C:
p659
aV    2748 sppsvc.exe           0x0000000000301320 SystemRoot                     C:\u005cWindows
p660
aV    2748 sppsvc.exe           0x0000000000301320 TEMP                           C:\u005cWindows\u005cSERVIC~2\u005cNETWOR~1\u005cAppData\u005cLocal\u005cTemp
p661
aV    2748 sppsvc.exe           0x0000000000301320 TMP                            C:\u005cWindows\u005cSERVIC~2\u005cNETWOR~1\u005cAppData\u005cLocal\u005cTemp
p662
aV    2748 sppsvc.exe           0x0000000000301320 USERDOMAIN                     WORKGROUP
p663
aV    2748 sppsvc.exe           0x0000000000301320 USERNAME                       LOPHI-PC$
p664
aV    2748 sppsvc.exe           0x0000000000301320 USERPROFILE                    C:\u005cWindows\u005cServiceProfiles\u005cNetworkService
p665
aV    2748 sppsvc.exe           0x0000000000301320 windir                         C:\u005cWindows
p666
aV    2776 svchost.exe          0x00000000003ec800 ALLUSERSPROFILE                C:\u005cProgramData
p667
aV    2776 svchost.exe          0x00000000003ec800 APPDATA                        C:\u005cWindows\u005csystem32\u005cconfig\u005csystemprofile\u005cAppData\u005cRoaming
p668
aV    2776 svchost.exe          0x00000000003ec800 CommonProgramFiles             C:\u005cProgram Files\u005cCommon Files
p669
aV    2776 svchost.exe          0x00000000003ec800 CommonProgramFiles(x86)        C:\u005cProgram Files (x86)\u005cCommon Files
p670
aV    2776 svchost.exe          0x00000000003ec800 CommonProgramW6432             C:\u005cProgram Files\u005cCommon Files
p671
aV    2776 svchost.exe          0x00000000003ec800 COMPUTERNAME                   LOPHI-PC
p672
aV    2776 svchost.exe          0x00000000003ec800 ComSpec                        C:\u005cWindows\u005csystem32\u005ccmd.exe
p673
aV    2776 svchost.exe          0x00000000003ec800 FP_NO_HOST_CHECK               NO
p674
aV    2776 svchost.exe          0x00000000003ec800 LOCALAPPDATA                   C:\u005cWindows\u005csystem32\u005cconfig\u005csystemprofile\u005cAppData\u005cLocal
p675
aV    2776 svchost.exe          0x00000000003ec800 MpConfig_ProductAppDataPath    C:\u005cProgramData\u005cMicrosoft\u005cWindows Defender
p676
aV    2776 svchost.exe          0x00000000003ec800 MpConfig_ProductCodeName       AntiSpyware
p677
aV    2776 svchost.exe          0x00000000003ec800 MpConfig_ProductPath           c:\u005cprogram files\u005cwindows defender
p678
aV    2776 svchost.exe          0x00000000003ec800 MpConfig_Produ...erAppDataPath C:\u005cWindows\u005csystem32\u005cconfig\u005csystemprofile\u005cAppData\u005cLocal\u005cMicrosoft\u005cWindows Defender
p679
aV    2776 svchost.exe          0x00000000003ec800 MpConfig_ReportingGUID         3BC4CDAE-B3E9-4959-9462-7D222FD2A7D8
p680
aV    2776 svchost.exe          0x00000000003ec800 NUMBER_OF_PROCESSORS           1
p681
aV    2776 svchost.exe          0x00000000003ec800 OS                             Windows_NT
p682
aV    2776 svchost.exe          0x00000000003ec800 Path                           C:\u005cWindows\u005csystem32;C:\u005cWindows;C:\u005cWindows\u005cSystem32\u005cWbem;C:\u005cWindows\u005cSystem32\u005cWindowsPowerShell\u005cv1.0\u005c;C:\u005cPython27
p683
aV    2776 svchost.exe          0x00000000003ec800 PATHEXT                        .COM;.EXE;.BAT;.CMD;.VBS;.VBE;.JS;.JSE;.WSF;.WSH;.MSC
p684
aV    2776 svchost.exe          0x00000000003ec800 PROCESSOR_ARCHITECTURE         AMD64
p685
aV    2776 svchost.exe          0x00000000003ec800 PROCESSOR_IDENTIFIER           Intel64 Family 6 Model 6 Stepping 3, GenuineIntel
p686
aV    2776 svchost.exe          0x00000000003ec800 PROCESSOR_LEVEL                6
p687
aV    2776 svchost.exe          0x00000000003ec800 PROCESSOR_REVISION             0603
p688
aV    2776 svchost.exe          0x00000000003ec800 ProgramData                    C:\u005cProgramData
p689
aV    2776 svchost.exe          0x00000000003ec800 ProgramFiles                   C:\u005cProgram Files
p690
aV    2776 svchost.exe          0x00000000003ec800 ProgramFiles(x86)              C:\u005cProgram Files (x86)
p691
aV    2776 svchost.exe          0x00000000003ec800 ProgramW6432                   C:\u005cProgram Files
p692
aV    2776 svchost.exe          0x00000000003ec800 PSModulePath                   C:\u005cWindows\u005csystem32\u005cWindowsPowerShell\u005cv1.0\u005cModules\u005c
p693
aV    2776 svchost.exe          0x00000000003ec800 PUBLIC                         C:\u005cUsers\u005cPublic
p694
aV    2776 svchost.exe          0x00000000003ec800 SystemDrive                    C:
p695
aV    2776 svchost.exe          0x00000000003ec800 SystemRoot                     C:\u005cWindows
p696
aV    2776 svchost.exe          0x00000000003ec800 TEMP                           C:\u005cWindows\u005cTEMP
p697
aV    2776 svchost.exe          0x00000000003ec800 TMP                            C:\u005cWindows\u005cTEMP
p698
aV    2776 svchost.exe          0x00000000003ec800 USERDOMAIN                     WORKGROUP
p699
aV    2776 svchost.exe          0x00000000003ec800 USERNAME                       LOPHI-PC$
p700
aV    2776 svchost.exe          0x00000000003ec800 USERPROFILE                    C:\u005cWindows\u005csystem32\u005cconfig\u005csystemprofile
p701
aV    2776 svchost.exe          0x00000000003ec800 windir                         C:\u005cWindows
p702
aV    2988 slui.exe             0x00000000002d1320 ALLUSERSPROFILE                C:\u005cProgramData
p703
aV    2988 slui.exe             0x00000000002d1320 APPDATA                        C:\u005cUsers\u005clophi\u005cAppData\u005cRoaming
p704
aV    2988 slui.exe             0x00000000002d1320 CommonProgramFiles             C:\u005cProgram Files\u005cCommon Files
p705
aV    2988 slui.exe             0x00000000002d1320 CommonProgramFiles(x86)        C:\u005cProgram Files (x86)\u005cCommon Files
p706
aV    2988 slui.exe             0x00000000002d1320 CommonProgramW6432             C:\u005cProgram Files\u005cCommon Files
p707
aV    2988 slui.exe             0x00000000002d1320 COMPUTERNAME                   LOPHI-PC
p708
aV    2988 slui.exe             0x00000000002d1320 ComSpec                        C:\u005cWindows\u005csystem32\u005ccmd.exe
p709
aV    2988 slui.exe             0x00000000002d1320 FP_NO_HOST_CHECK               NO
p710
aV    2988 slui.exe             0x00000000002d1320 HOMEDRIVE                      C:
p711
aV    2988 slui.exe             0x00000000002d1320 HOMEPATH                       \u005cUsers\u005clophi
p712
aV    2988 slui.exe             0x00000000002d1320 LOCALAPPDATA                   C:\u005cUsers\u005clophi\u005cAppData\u005cLocal
p713
aV    2988 slui.exe             0x00000000002d1320 LOGONSERVER                    \u005c\u005cLOPHI-PC
p714
aV    2988 slui.exe             0x00000000002d1320 NUMBER_OF_PROCESSORS           1
p715
aV    2988 slui.exe             0x00000000002d1320 OS                             Windows_NT
p716
aV    2988 slui.exe             0x00000000002d1320 Path                           C:\u005cWindows\u005csystem32;C:\u005cWindows;C:\u005cWindows\u005cSystem32\u005cWbem;C:\u005cWindows\u005cSystem32\u005cWindowsPowerShell\u005cv1.0\u005c;C:\u005cPython27
p717
aV    2988 slui.exe             0x00000000002d1320 PATHEXT                        .COM;.EXE;.BAT;.CMD;.VBS;.VBE;.JS;.JSE;.WSF;.WSH;.MSC
p718
aV    2988 slui.exe             0x00000000002d1320 PROCESSOR_ARCHITECTURE         AMD64
p719
aV    2988 slui.exe             0x00000000002d1320 PROCESSOR_IDENTIFIER           Intel64 Family 6 Model 6 Stepping 3, GenuineIntel
p720
aV    2988 slui.exe             0x00000000002d1320 PROCESSOR_LEVEL                6
p721
aV    2988 slui.exe             0x00000000002d1320 PROCESSOR_REVISION             0603
p722
aV    2988 slui.exe             0x00000000002d1320 ProgramData                    C:\u005cProgramData
p723
aV    2988 slui.exe             0x00000000002d1320 ProgramFiles                   C:\u005cProgram Files
p724
aV    2988 slui.exe             0x00000000002d1320 ProgramFiles(x86)              C:\u005cProgram Files (x86)
p725
aV    2988 slui.exe             0x00000000002d1320 ProgramW6432                   C:\u005cProgram Files
p726
aV    2988 slui.exe             0x00000000002d1320 PSModulePath                   C:\u005cWindows\u005csystem32\u005cWindowsPowerShell\u005cv1.0\u005cModules\u005c
p727
aV    2988 slui.exe             0x00000000002d1320 PUBLIC                         C:\u005cUsers\u005cPublic
p728
aV    2988 slui.exe             0x00000000002d1320 SystemDrive                    C:
p729
aV    2988 slui.exe             0x00000000002d1320 SystemRoot                     C:\u005cWindows
p730
aV    2988 slui.exe             0x00000000002d1320 TEMP                           C:\u005cUsers\u005clophi\u005cAppData\u005cLocal\u005cTemp
p731
aV    2988 slui.exe             0x00000000002d1320 TMP                            C:\u005cUsers\u005clophi\u005cAppData\u005cLocal\u005cTemp
p732
aV    2988 slui.exe             0x00000000002d1320 USERDOMAIN                     lophi-PC
p733
aV    2988 slui.exe             0x00000000002d1320 USERNAME                       lophi
p734
aV    2988 slui.exe             0x00000000002d1320 USERPROFILE                    C:\u005cUsers\u005clophi
p735
aV    2988 slui.exe             0x00000000002d1320 windir                         C:\u005cWindows
p736
aV    1852 WmiPrvSE.exe         0x0000000000391320 ALLUSERSPROFILE                C:\u005cProgramData
p737
aV    1852 WmiPrvSE.exe         0x0000000000391320 APPDATA                        C:\u005cWindows\u005csystem32\u005cconfig\u005csystemprofile\u005cAppData\u005cRoaming
p738
aV    1852 WmiPrvSE.exe         0x0000000000391320 CommonProgramFiles             C:\u005cProgram Files\u005cCommon Files
p739
aV    1852 WmiPrvSE.exe         0x0000000000391320 CommonProgramFiles(x86)        C:\u005cProgram Files (x86)\u005cCommon Files
p740
aV    1852 WmiPrvSE.exe         0x0000000000391320 CommonProgramW6432             C:\u005cProgram Files\u005cCommon Files
p741
aV    1852 WmiPrvSE.exe         0x0000000000391320 COMPUTERNAME                   LOPHI-PC
p742
aV    1852 WmiPrvSE.exe         0x0000000000391320 ComSpec                        C:\u005cWindows\u005csystem32\u005ccmd.exe
p743
aV    1852 WmiPrvSE.exe         0x0000000000391320 FP_NO_HOST_CHECK               NO
p744
aV    1852 WmiPrvSE.exe         0x0000000000391320 LOCALAPPDATA                   C:\u005cWindows\u005csystem32\u005cconfig\u005csystemprofile\u005cAppData\u005cLocal
p745
aV    1852 WmiPrvSE.exe         0x0000000000391320 NUMBER_OF_PROCESSORS           1
p746
aV    1852 WmiPrvSE.exe         0x0000000000391320 OS                             Windows_NT
p747
aV    1852 WmiPrvSE.exe         0x0000000000391320 Path                           C:\u005cWindows\u005csystem32;C:\u005cWindows;C:\u005cWindows\u005cSystem32\u005cWbem;C:\u005cWindows\u005cSystem32\u005cWindowsPowerShell\u005cv1.0\u005c;C:\u005cPython27
p748
aV    1852 WmiPrvSE.exe         0x0000000000391320 PATHEXT                        .COM;.EXE;.BAT;.CMD;.VBS;.VBE;.JS;.JSE;.WSF;.WSH;.MSC
p749
aV    1852 WmiPrvSE.exe         0x0000000000391320 PROCESSOR_ARCHITECTURE         AMD64
p750
aV    1852 WmiPrvSE.exe         0x0000000000391320 PROCESSOR_IDENTIFIER           Intel64 Family 6 Model 6 Stepping 3, GenuineIntel
p751
aV    1852 WmiPrvSE.exe         0x0000000000391320 PROCESSOR_LEVEL                6
p752
aV    1852 WmiPrvSE.exe         0x0000000000391320 PROCESSOR_REVISION             0603
p753
aV    1852 WmiPrvSE.exe         0x0000000000391320 ProgramData                    C:\u005cProgramData
p754
aV    1852 WmiPrvSE.exe         0x0000000000391320 ProgramFiles                   C:\u005cProgram Files
p755
aV    1852 WmiPrvSE.exe         0x0000000000391320 ProgramFiles(x86)              C:\u005cProgram Files (x86)
p756
aV    1852 WmiPrvSE.exe         0x0000000000391320 ProgramW6432                   C:\u005cProgram Files
p757
aV    1852 WmiPrvSE.exe         0x0000000000391320 PSModulePath                   C:\u005cWindows\u005csystem32\u005cWindowsPowerShell\u005cv1.0\u005cModules\u005c
p758
aV    1852 WmiPrvSE.exe         0x0000000000391320 PUBLIC                         C:\u005cUsers\u005cPublic
p759
aV    1852 WmiPrvSE.exe         0x0000000000391320 SystemDrive                    C:
p760
aV    1852 WmiPrvSE.exe         0x0000000000391320 SystemRoot                     C:\u005cWindows
p761
aV    1852 WmiPrvSE.exe         0x0000000000391320 TEMP                           C:\u005cWindows\u005cTEMP
p762
aV    1852 WmiPrvSE.exe         0x0000000000391320 TMP                            C:\u005cWindows\u005cTEMP
p763
aV    1852 WmiPrvSE.exe         0x0000000000391320 USERDOMAIN                     WORKGROUP
p764
aV    1852 WmiPrvSE.exe         0x0000000000391320 USERNAME                       LOPHI-PC$
p765
aV    1852 WmiPrvSE.exe         0x0000000000391320 USERPROFILE                    C:\u005cWindows\u005csystem32\u005cconfig\u005csystemprofile
p766
aV    1852 WmiPrvSE.exe         0x0000000000391320 windir                         C:\u005cWindows
p767
assVpsxview
p768
(dp769
VRemoved Entries
p770
(lp771
V0x000000003eb0a060 svchost.exe             860 True   True   True     True   True  True    False   
p772
aV0x000000003ea84b30 audiodg.exe             928 True   True   True     True   True  True    False   
p773
aV0x000000003e9ef730 svchost.exe            1900 True   True   True     True   True  True    False   
p774
aV0x000000003e7eeb30 SearchProtocol          608 True   True   True     True   True  True    False   
p775
aV0x000000003e7ebb30 SearchFilterHo         1884 True   True   True     True   True  True    True    
p776
aV0x000000003e9d3060 conhost.exe            2316 True   True   True     True   True  True    True    
p777
aV0x000000003e652060 GoogleUpdate.e         1284 True   True   True     True   True  True    False   
p778
aV0x000000003ebea550 cmd.exe                2308 True   True   True     True   True  True    True    
p779
aV0x000000003edf7b30 svchost.exe             704 True   True   True     True   True  True    False   
p780
aV0x000000003e878b30 reader_sl.exe          1372 True   True   True     True   True  True    True    
p781
aV0x000000003e835730 taskeng.exe            1268 True   True   True     True   True  True    False   
p782
aV0x000000003edd2910 svchost.exe             652 True   True   True     True   True  True    False   
p783
aV0x000000003eb69510 dwm.exe                1076 True   True   True     True   True  True    True    
p784
aV0x000000003ebdd5e0 svchost.exe            1204 True   True   True     True   True  True    False   
p785
aV0x000000003e6b7290 SearchIndexer.          268 True   True   True     True   True  True    False   
p786
aV0x000000003eab8ab0 svchost.exe            1008 True   True   True     True   True  True    False   
p787
aV0x000000003e8d0b30 svchost.exe            1536 True   True   True     True   True  True    False   
p788
aV0x000000003ff63580 csrss.exe               384 True   True   True     True   False True    True    
p789
aV0x000000003fe54060 svchost.exe            2776 True   True   True     False  False True    False   
p790
aV0x000000003e99e060 sppsvc.exe             2748 True   True   True     False  False True    False   
p791
asVAdded Entries
p792
(lp793
V0x000000003eb0a060 svchost.exe             860 True   True   True     True   True  True    True    
p794
aV0x000000003ea84b30 audiodg.exe             928 True   True   True     True   True  True    True    
p795
aV0x000000003e9ef730 svchost.exe            1900 True   True   True     True   True  True    True    
p796
aV0x000000003e8d0b30 svchost.exe            1536 True   True   True     True   True  True    True    
p797
aV0x000000003ff37b30 slui.exe               2988 True   True   True     True   True  True    False   
p798
aV0x000000003fe54060 svchost.exe            2776 True   True   True     True   True  True    False   
p799
aV0x000000003fe16060 WmiPrvSE.exe           1852 True   True   True     True   True  True    True    
p800
aV0x000000003e652060 GoogleUpdate.e         1284 True   True   True     True   True  True    True    
p801
aV0x000000003edf7b30 svchost.exe             704 True   True   True     True   True  True    True    
p802
aV0x000000003e835730 taskeng.exe            1268 True   True   True     True   True  True    True    
p803
aV0x000000003edd2910 svchost.exe             652 True   True   True     True   True  True    True    
p804
aV0x000000003e99e060 sppsvc.exe             2748 True   True   True     True   True  True    True    
p805
aV0x000000003eb69510 dwm.exe                1076 True   True   True     True   True  True    False   
p806
aV0x000000003ebdd5e0 svchost.exe            1204 True   True   True     True   True  True    True    
p807
aV0x000000003e6b7290 SearchIndexer.          268 True   True   True     True   True  True    True    
p808
aV0x000000003eab8ab0 svchost.exe            1008 True   True   True     True   True  True    True    
p809
aV0x000000003ff63580 csrss.exe               384 True   True   True     True   False True    False   
p810
assVpsscan
p811
(dp812
VRemoved Entries
p813
(lp814
V0x0000fa80021ea550 cmd.exe            2308   1088 0x000000003c76e000 2015-08-15 20:13:17 UTC+0000                                 
p815
aV0x0000fa8002278b30 reader_sl.exe      1372   1316 0x000000000fcb4000 2015-08-15 20:12:06 UTC+0000                                 
p816
aV0x0000fa80023d3060 conhost.exe        2316    384 0x000000003c26b000 2015-08-15 20:13:17 UTC+0000                                 
p817
aV0x0000fa80025ebb30 SearchFilterHo     1884    268 0x0000000009462000 2015-08-15 20:12:12 UTC+0000                                 
p818
aV0x0000fa80025eeb30 SearchProtocol      608    268 0x0000000008fea000 2015-08-15 20:12:12 UTC+0000                                 
p819
asVAdded Entries
p820
(lp821
V0x0000fa8000cf8b30 slui.exe           2988    588 0x0000000035cfd000 2015-08-15 20:14:54 UTC+0000                                 
p822
aV0x0000fa8000dd7060 WmiPrvSE.exe       1852    588 0x0000000032e2a000 2015-08-15 20:16:07 UTC+0000                                 
p823
assVdriverirp
p824
(dp825
sVssdt
p826
(dp827
VRemoved Entries
p828
(lp829
sVAdded Entries
p830
(lp831
ss.