(dp0
Vmodscan
p1
(dp2
VRemoved Entries
p3
(lp4
V0x0000fa8001cb2170 spsys.sys            0xfffff880040c4000            0x71000 
p5
asVAdded Entries
p6
(lp7
V0x0000fa8001cb2170 spsys.sys            0xfffff880040c4000            0x71000 \u005cSystemRoot\u005csystem32\u005cdrivers\u005cspsys.sys
p8
assVnetscan
p9
(dp10
VRemoved Entries
p11
(lp12
V0x3ecf1130 TCPv4    192.168.1.169:49162            192.168.1.1:59368    CLOSED           34385504                
p13
aV0x3e7b29b0 UDPv6    fe80::f4d0:a2e:7167:8723:546   *:*                                   704      svchost.exe    2015-08-15 20:12:17 UTC+0000
p14
aV0x3e9b9540 UDPv4    0.0.0.0:50534                  *:*                                   856      svchost.exe    2015-08-15 20:14:21 UTC+0000
p15
aV0x3fc0f440 UDPv4    0.0.0.0:0                      *:*                                   860      svchost.exe    2015-08-15 20:14:20 UTC+0000
p16
aV0x3fc0f440 UDPv6    :::0                           *:*                                   860      svchost.exe    2015-08-15 20:14:20 UTC+0000
p17
asVAdded Entries
p18
(lp19
V0x3ecf1130 TCPv4    192.168.1.169:49162            192.168.1.1:59368    CLOSED           0                       
p20
aV0x3fc2f010 UDPv4    0.0.0.0:0                      *:*                                   1004     svchost.exe    2015-08-15 20:15:07 UTC+0000
p21
aV0x3fc2f010 UDPv6    :::0                           *:*                                   1004     svchost.exe    2015-08-15 20:15:07 UTC+0000
p22
aV0x3fc7e910 UDPv4    0.0.0.0:0                      *:*                                   1004     svchost.exe    2015-08-15 20:15:07 UTC+0000
p23
aV0x3fc94ad0 UDPv4    0.0.0.0:123                    *:*                                   1004     svchost.exe    2015-08-15 20:15:07 UTC+0000
p24
aV0x3fc94ad0 UDPv6    :::123                         *:*                                   1004     svchost.exe    2015-08-15 20:15:07 UTC+0000
p25
aV0x3fc94d70 UDPv4    0.0.0.0:123                    *:*                                   1004     svchost.exe    2015-08-15 20:15:07 UTC+0000
p26
assVldrmodules
p27
(dp28
VRemoved Entries
p29
(lp30
V     248 smss.exe             0x0000000048130000 True   False  True  \u005cWindows\u005cSystem32\u005csmss.exe
p31
aV     324 csrss.exe            0x000007fefd740000 True   True   True  \u005cWindows\u005cSystem32\u005ccsrsrv.dll
p32
aV     324 csrss.exe            0x000007fefd6d0000 True   True   True  \u005cWindows\u005cSystem32\u005csxssrv.dll
p33
aV     324 csrss.exe            0x000007fefd720000 True   True   True  \u005cWindows\u005cSystem32\u005cbasesrv.dll
p34
aV     324 csrss.exe            0x000007fefd6e0000 True   True   True  \u005cWindows\u005cSystem32\u005cwinsrv.dll
p35
aV     384 csrss.exe            0x000007fefd740000 True   True   True  \u005cWindows\u005cSystem32\u005ccsrsrv.dll
p36
aV     384 csrss.exe            0x000007fefd6d0000 True   True   True  \u005cWindows\u005cSystem32\u005csxssrv.dll
p37
aV     384 csrss.exe            0x000007fefd720000 True   True   True  \u005cWindows\u005cSystem32\u005cbasesrv.dll
p38
aV     384 csrss.exe            0x000007fefd6e0000 True   True   True  \u005cWindows\u005cSystem32\u005cwinsrv.dll
p39
aV     424 winlogon.exe         0x000007fefb210000 True   True   True  \u005cWindows\u005cSystem32\u005cUXInit.dll
p40
aV     468 services.exe         0x000007fefd500000 True   True   True  \u005cWindows\u005cSystem32\u005cscext.dll
p41
aV     468 services.exe         0x000007fefd480000 True   True   True  \u005cWindows\u005cSystem32\u005cscesrv.dll
p42
aV     476 lsass.exe            0x000007fefd170000 True   True   True  \u005cWindows\u005cSystem32\u005ccngaudit.dll
p43
aV     476 lsass.exe            0x000007fefd440000 True   True   True  \u005cWindows\u005cSystem32\u005csspisrv.dll
p44
aV     476 lsass.exe            0x000007fefcdd0000 True   True   True  \u005cWindows\u005cSystem32\u005cnetlogon.dll
p45
aV     476 lsass.exe            0x000007fefcbe0000 True   True   True  \u005cWindows\u005cSystem32\u005cpku2u.dll
p46
aV     476 lsass.exe            0x000007fefd210000 True   True   True  \u005cWindows\u005cSystem32\u005csamsrv.dll
p47
aV     476 lsass.exe            0x000007fefcca0000 True   True   True  \u005cWindows\u005cSystem32\u005cwdigest.dll
p48
aV     476 lsass.exe            0x000007fefcad0000 True   True   True  \u005cWindows\u005cSystem32\u005cscecli.dll
p49
aV     476 lsass.exe            0x000007fefd030000 True   True   True  \u005cWindows\u005cSystem32\u005cnegoexts.dll
p50
aV     476 lsass.exe            0x000007fefcf70000 True   True   True  \u005cWindows\u005cSystem32\u005ckerberos.dll
p51
aV     476 lsass.exe            0x000007fefcb70000 True   True   True  \u005cWindows\u005cSystem32\u005cefslsaext.dll
p52
aV     476 lsass.exe            0x000007fefcc30000 True   True   True  \u005cWindows\u005cSystem32\u005cTSpkg.dll
p53
aV     484 lsm.exe              0x0000000000220000 False  False  False \u005cWindows\u005cSystem32\u005cen-US\u005clsm.exe.mui
p54
aV     484 lsm.exe              0x00000000ff990000 True   False  True  \u005cWindows\u005cSystem32\u005clsm.exe
p55
aV     588 svchost.exe          0x000007fefc9b0000 True   True   True  \u005cWindows\u005cSystem32\u005cumpo.dll
p56
aV     588 svchost.exe          0x000007fef8940000 True   True   True  \u005cWindows\u005cSystem32\u005cwbem\u005cWmiDcPrv.dll
p57
aV     588 svchost.exe          0x000007fefca60000 True   True   True  \u005cWindows\u005cSystem32\u005cumpnpmgr.dll
p58
aV     704 svchost.exe          0x0000000073db0000 False  False  False \u005cWindows\u005cSystem32\u005cwbem\u005cWinMgmtR.dll
p59
aV     808 svchost.exe          0x0000000000c90000 False  False  False \u005cWindows\u005cSystem32\u005cen-US\u005csysmain.dll.mui
p60
aV     808 svchost.exe          0x000007fefb8c0000 True   True   True  \u005cWindows\u005cSystem32\u005cPortableDeviceConnectApi.dll
p61
aV     808 svchost.exe          0x000007fef8220000 True   True   True  \u005cWindows\u005cSystem32\u005cApphlpdm.dll
p62
aV     860 svchost.exe          0x000007fefb1a0000 True   True   True  \u005cWindows\u005cSystem32\u005ces.dll
p63
aV     860 svchost.exe          0x000007fef8390000 True   True   True  \u005cWindows\u005cSystem32\u005chnetcfg.dll
p64
aV     860 svchost.exe          0x000007fef8710000 True   True   True  \u005cWindows\u005cSystem32\u005cnetcfgx.dll
p65
aV     860 svchost.exe          0x000007fef8810000 True   True   True  \u005cWindows\u005cSystem32\u005cwbem\u005cwbemprox.dll
p66
aV     860 svchost.exe          0x000007fef8280000 True   True   True  \u005cWindows\u005cSystem32\u005crascfg.dll
p67
aV     860 svchost.exe          0x000007fef8240000 True   True   True  \u005cWindows\u005cSystem32\u005cmprapi.dll
p68
aV     860 svchost.exe          0x000007fef8150000 True   True   True  \u005cWindows\u005cSystem32\u005ctcpipcfg.dll
p69
aV     860 svchost.exe          0x000007fefa400000 True   True   True  \u005cWindows\u005cSystem32\u005cactxprxy.dll
p70
aV     860 svchost.exe          0x000007fef82a0000 True   True   True  \u005cWindows\u005cSystem32\u005cndiscapCfg.dll
p71
aV     924 audiodg.exe          0x00000000003d0000 False  False  False \u005cWindows\u005cSystem32\u005cen-US\u005caudiodg.exe.mui
p72
aV     924 audiodg.exe          0x000007fef96c0000 True   True   True  \u005cWindows\u005cSystem32\u005cAUDIOKSE.dll
p73
aV     856 svchost.exe          0x000007fef8f20000 True   True   True  \u005cWindows\u005cSystem32\u005cnlasvc.dll
p74
aV     856 svchost.exe          0x000007fef8ee0000 True   True   True  \u005cWindows\u005cSystem32\u005cncsi.dll
p75
aV    1084 explorer.exe         0x00000000037d0000 False  False  False \u005cWindows\u005cSystem32\u005cen-US\u005cMMDevAPI.dll.mui
p76
aV    1084 explorer.exe         0x00000000037c0000 False  False  False \u005cWindows\u005cSystem32\u005cen-US\u005cwdmaud.drv.mui
p77
aV    1084 explorer.exe         0x0000000003d30000 False  False  False \u005cWindows\u005cSystem32\u005cen-US\u005cFXSRESM.dll.mui
p78
aV    1084 explorer.exe         0x0000000003be0000 False  False  False \u005cWindows\u005cSystem32\u005cen-US\u005cbthprops.cpl.mui
p79
aV    1224 svchost.exe          0x000007fef9260000 True   True   True  \u005cWindows\u005cSystem32\u005cwfapigp.dll
p80
aV    1224 svchost.exe          0x000007fefb710000 True   True   True  \u005cWindows\u005cSystem32\u005cradardt.dll
p81
aV    1364 reader_sl.exe        0x0000000075bd0000 False  False  False \u005cWindows\u005cSysWOW64\u005cuser32.dll
p82
aV    1364 reader_sl.exe        0x0000000000400000 True   False  True  \u005cProgram Files (x86)\u005cAdobe\u005cReader 9.0\u005cReader\u005creader_sl.exe
p83
aV    1364 reader_sl.exe        0x0000000075f40000 False  False  False \u005cWindows\u005cSysWOW64\u005cimm32.dll
p84
aV    1364 reader_sl.exe        0x0000000076230000 False  False  False \u005cWindows\u005cSysWOW64\u005clpk.dll
p85
aV    1364 reader_sl.exe        0x0000000077760000 True   True   True  \u005cWindows\u005cSystem32\u005cntdll.dll
p86
aV    1364 reader_sl.exe        0x0000000075d90000 False  False  False \u005cWindows\u005cSysWOW64\u005ckernel32.dll
p87
aV    1364 reader_sl.exe        0x0000000076890000 False  False  False \u005cWindows\u005cSysWOW64\u005cshell32.dll
p88
aV    1364 reader_sl.exe        0x0000000073ba0000 False  False  False \u005cWindows\u005cwinsxs\u005cx86_microsoft.vc80.crt_1fc8b3b9a1e18e3b_8.0.50727.4927_none_d08a205e442db5b5\u005cmsvcr80.dll
p89
aV    1364 reader_sl.exe        0x00000000759b0000 False  False  False \u005cWindows\u005cSysWOW64\u005cusp10.dll
p90
aV    1364 reader_sl.exe        0x00000000757c0000 False  False  False \u005cWindows\u005cSysWOW64\u005cKernelBase.dll
p91
aV    1364 reader_sl.exe        0x0000000073890000 False  False  False \u005cWindows\u005cSysWOW64\u005cdwmapi.dll
p92
aV    1364 reader_sl.exe        0x0000000073c40000 False  False  False \u005cWindows\u005cwinsxs\u005cx86_microsoft.vc80.crt_1fc8b3b9a1e18e3b_8.0.50727.4927_none_d08a205e442db5b5\u005cmsvcp80.dll
p93
aV    1364 reader_sl.exe        0x0000000074080000 True   True   True  \u005cWindows\u005cSystem32\u005cwow64cpu.dll
p94
aV    1364 reader_sl.exe        0x0000000075e90000 False  False  False \u005cWindows\u005cSysWOW64\u005cmsvcrt.dll
p95
aV    1364 reader_sl.exe        0x00000000754a0000 False  False  False \u005cWindows\u005cSysWOW64\u005ccryptbase.dll
p96
aV    1364 reader_sl.exe        0x00000000756b0000 False  False  False \u005cWindows\u005cSysWOW64\u005cgdi32.dll
p97
aV    1364 reader_sl.exe        0x00000000758c0000 False  False  False \u005cWindows\u005cSysWOW64\u005crpcrt4.dll
p98
aV    1364 reader_sl.exe        0x00000000774e0000 False  False  False \u005cWindows\u005cSysWOW64\u005cshlwapi.dll
p99
aV    1364 reader_sl.exe        0x0000000077940000 False  False  False \u005cWindows\u005cSysWOW64\u005cntdll.dll
p100
aV    1364 reader_sl.exe        0x00000000758a0000 False  False  False \u005cWindows\u005cSysWOW64\u005csechost.dll
p101
aV    1364 reader_sl.exe        0x00000000740f0000 True   True   True  \u005cWindows\u005cSystem32\u005cwow64.dll
p102
aV    1364 reader_sl.exe        0x00000000766b0000 False  False  False \u005cWindows\u005cSysWOW64\u005cmsctf.dll
p103
aV    1364 reader_sl.exe        0x0000000073e60000 False  False  False \u005cWindows\u005cSysWOW64\u005cuxtheme.dll
p104
aV    1364 reader_sl.exe        0x0000000074090000 True   True   True  \u005cWindows\u005cSystem32\u005cwow64win.dll
p105
aV    1364 reader_sl.exe        0x00000000754b0000 False  False  False \u005cWindows\u005cSysWOW64\u005csspicli.dll
p106
aV    1364 reader_sl.exe        0x0000000075cf0000 False  False  False \u005cWindows\u005cSysWOW64\u005cadvapi32.dll
p107
aV    1372 AdobeARM.exe         0x00000000750e0000 False  False  False \u005cWindows\u005cSysWOW64\u005cqmgrprxy.dll
p108
aV    1372 AdobeARM.exe         0x00000000738d0000 False  False  False \u005cWindows\u005cSysWOW64\u005coledlg.dll
p109
aV    1552 svchost.exe          0x000007fef8230000 True   True   True  \u005cWindows\u005cSystem32\u005chttpapi.dll
p110
aV    1904 svchost.exe          0x000007fefb740000 True   True   True  \u005cWindows\u005cSystem32\u005cFwRemoteSvr.dll
p111
aV     532 SearchProtocol       0x0000000077540000 True   True   True  \u005cWindows\u005cSystem32\u005cuser32.dll
p112
aV     532 SearchProtocol       0x0000000077760000 True   True   True  \u005cWindows\u005cSystem32\u005cntdll.dll
p113
aV     532 SearchProtocol       0x000007fef6740000 True   True   True  \u005cWindows\u005cSystem32\u005cmssph.dll
p114
aV     532 SearchProtocol       0x000007fef5a30000 True   True   True  \u005cWindows\u005cSystem32\u005cmapi32.dll
p115
aV     532 SearchProtocol       0x000007fef7340000 True   True   True  \u005cWindows\u005cSystem32\u005ctquery.dll
p116
aV     532 SearchProtocol       0x000007fefc170000 True   True   True  \u005cWindows\u005cwinsxs\u005camd64_microsoft.windows.common-controls_6595b64144ccf1df_6.0.7600.16385_none_fa645303170382f6\u005ccomctl32.dll
p117
aV     532 SearchProtocol       0x000007fefd5b0000 True   True   True  \u005cWindows\u005cSystem32\u005ccryptbase.dll
p118
aV     532 SearchProtocol       0x000007fefdbc0000 True   True   True  \u005cWindows\u005cSystem32\u005cadvapi32.dll
p119
aV     532 SearchProtocol       0x000007feff9f0000 True   True   True  \u005cWindows\u005cSystem32\u005cimm32.dll
p120
aV     532 SearchProtocol       0x0000000077640000 True   True   True  \u005cWindows\u005cSystem32\u005ckernel32.dll
p121
aV     532 SearchProtocol       0x000007feff630000 True   True   True  \u005cWindows\u005cSystem32\u005clpk.dll
p122
aV     532 SearchProtocol       0x000007feff040000 True   True   True  \u005cWindows\u005cSystem32\u005coleaut32.dll
p123
aV     532 SearchProtocol       0x000007feff8e0000 True   True   True  \u005cWindows\u005cSystem32\u005cmsvcrt.dll
p124
aV     532 SearchProtocol       0x000007feff120000 True   True   True  \u005cWindows\u005cSystem32\u005cole32.dll
p125
aV     532 SearchProtocol       0x000007feff330000 True   True   True  \u005cWindows\u005cSystem32\u005cclbcatq.dll
p126
aV     532 SearchProtocol       0x000007fefd140000 True   True   True  \u005cWindows\u005cSystem32\u005cauthz.dll
p127
aV     532 SearchProtocol       0x000007fefcf50000 True   True   True  \u005cWindows\u005cSystem32\u005ccryptsp.dll
p128
aV     532 SearchProtocol       0x000007fefef70000 True   True   True  \u005cWindows\u005cSystem32\u005cusp10.dll
p129
aV     532 SearchProtocol       0x000007fefdf00000 True   True   True  \u005cWindows\u005cSystem32\u005cshell32.dll
p130
aV     532 SearchProtocol       0x000007feff980000 True   True   True  \u005cWindows\u005cSystem32\u005csechost.dll
p131
aV     532 SearchProtocol       0x000007feff9a0000 True   True   True  \u005cWindows\u005cSystem32\u005cWldap32.dll
p132
aV     532 SearchProtocol       0x000007fefb5e0000 True   True   True  \u005cWindows\u005cSystem32\u005cntmarta.dll
p133
aV     532 SearchProtocol       0x000007fefd9e0000 True   True   True  \u005cWindows\u005cSystem32\u005ccfgmgr32.dll
p134
aV     532 SearchProtocol       0x000007fefbff0000 True   True   True  \u005cWindows\u005cSystem32\u005cpropsys.dll
p135
aV     532 SearchProtocol       0x000007feff7c0000 True   True   True  \u005cWindows\u005cSystem32\u005cshlwapi.dll
p136
aV     532 SearchProtocol       0x000007fefd810000 True   True   True  \u005cWindows\u005cSystem32\u005cdevobj.dll
p137
aV     532 SearchProtocol       0x000007fefde90000 True   True   True  \u005cWindows\u005cSystem32\u005cgdi32.dll
p138
aV     532 SearchProtocol       0x000007fefda20000 True   True   True  \u005cWindows\u005cSystem32\u005cKernelBase.dll
p139
aV     532 SearchProtocol       0x000007fefee40000 True   True   True  \u005cWindows\u005cSystem32\u005crpcrt4.dll
p140
aV     532 SearchProtocol       0x000007fefcc50000 True   True   True  \u005cWindows\u005cSystem32\u005crsaenh.dll
p141
aV     532 SearchProtocol       0x000007fef6e60000 True   True   True  \u005cWindows\u005cSystem32\u005cmssprxy.dll
p142
aV     532 SearchProtocol       0x000007fef6e80000 True   True   True  \u005cWindows\u005cSystem32\u005cmsidle.dll
p143
aV     532 SearchProtocol       0x000007fefec90000 True   True   True  \u005cWindows\u005cSystem32\u005cmsctf.dll
p144
aV     532 SearchProtocol       0x000007fefd6a0000 True   True   True  \u005cWindows\u005cSystem32\u005cRpcRtRemote.dll
p145
aV     532 SearchProtocol       0x000007fefdcb0000 True   True   True  \u005cWindows\u005cSystem32\u005csetupapi.dll
p146
aV     532 SearchProtocol       0x000007fef68d0000 True   True   True  \u005cWindows\u005cSystem32\u005cmsshooks.dll
p147
aV     532 SearchProtocol       0x00000000ffb00000 True   False  True  \u005cWindows\u005cSystem32\u005cSearchProtocolHost.exe
p148
aV     844 SearchFilterHo       0x0000000077540000 True   True   True  \u005cWindows\u005cSystem32\u005cuser32.dll
p149
aV     844 SearchFilterHo       0x0000000077760000 True   True   True  \u005cWindows\u005cSystem32\u005cntdll.dll
p150
aV     844 SearchFilterHo       0x000007fef7340000 True   True   True  \u005cWindows\u005cSystem32\u005ctquery.dll
p151
aV     844 SearchFilterHo       0x00000000ffb30000 True   False  True  \u005cWindows\u005cSystem32\u005cSearchFilterHost.exe
p152
aV     844 SearchFilterHo       0x000007fefd5b0000 True   True   True  \u005cWindows\u005cSystem32\u005ccryptbase.dll
p153
aV     844 SearchFilterHo       0x000007fefdbc0000 True   True   True  \u005cWindows\u005cSystem32\u005cadvapi32.dll
p154
aV     844 SearchFilterHo       0x000007feff9f0000 True   True   True  \u005cWindows\u005cSystem32\u005cimm32.dll
p155
aV     844 SearchFilterHo       0x000007fefee40000 True   True   True  \u005cWindows\u005cSystem32\u005crpcrt4.dll
p156
aV     844 SearchFilterHo       0x000007feff630000 True   True   True  \u005cWindows\u005cSystem32\u005clpk.dll
p157
aV     844 SearchFilterHo       0x000007feff040000 True   True   True  \u005cWindows\u005cSystem32\u005coleaut32.dll
p158
aV     844 SearchFilterHo       0x000007fef6860000 True   True   True  \u005cWindows\u005cSystem32\u005cmscoree.dll
p159
aV     844 SearchFilterHo       0x000007fefde90000 True   True   True  \u005cWindows\u005cSystem32\u005cgdi32.dll
p160
aV     844 SearchFilterHo       0x000007feff8e0000 True   True   True  \u005cWindows\u005cSystem32\u005cmsvcrt.dll
p161
aV     844 SearchFilterHo       0x000007feff120000 True   True   True  \u005cWindows\u005cSystem32\u005cole32.dll
p162
aV     844 SearchFilterHo       0x000007feff330000 True   True   True  \u005cWindows\u005cSystem32\u005cclbcatq.dll
p163
aV     844 SearchFilterHo       0x000007fefef70000 True   True   True  \u005cWindows\u005cSystem32\u005cusp10.dll
p164
aV     844 SearchFilterHo       0x000007fef67c0000 True   True   True  \u005cWindows\u005cMicrosoft.NET\u005cFramework64\u005cv4.0.30319\u005cmscoreei.dll
p165
aV     844 SearchFilterHo       0x000007feff980000 True   True   True  \u005cWindows\u005cSystem32\u005csechost.dll
p166
aV     844 SearchFilterHo       0x000007feff7c0000 True   True   True  \u005cWindows\u005cSystem32\u005cshlwapi.dll
p167
aV     844 SearchFilterHo       0x000007fefcf50000 True   True   True  \u005cWindows\u005cSystem32\u005ccryptsp.dll
p168
aV     844 SearchFilterHo       0x000007fefda20000 True   True   True  \u005cWindows\u005cSystem32\u005cKernelBase.dll
p169
aV     844 SearchFilterHo       0x0000000077640000 True   True   True  \u005cWindows\u005cSystem32\u005ckernel32.dll
p170
aV     844 SearchFilterHo       0x000007fefcc50000 True   True   True  \u005cWindows\u005cSystem32\u005crsaenh.dll
p171
aV     844 SearchFilterHo       0x000007fef6e60000 True   True   True  \u005cWindows\u005cSystem32\u005cmssprxy.dll
p172
aV     844 SearchFilterHo       0x000007fefec90000 True   True   True  \u005cWindows\u005cSystem32\u005cmsctf.dll
p173
aV     844 SearchFilterHo       0x000007fefd6a0000 True   True   True  \u005cWindows\u005cSystem32\u005cRpcRtRemote.dll
p174
aV     844 SearchFilterHo       0x000007fef68d0000 True   True   True  \u005cWindows\u005cSystem32\u005cmsshooks.dll
p175
aV    2336 cmd.exe              0x000000004a550000 True   False  True  \u005cWindows\u005cSystem32\u005ccmd.exe
p176
aV    2336 cmd.exe              0x00000000002f0000 False  False  False \u005cWindows\u005cSystem32\u005cen-US\u005ccmd.exe.mui
p177
aV    2336 cmd.exe              0x000007fefef70000 True   True   True  \u005cWindows\u005cSystem32\u005cusp10.dll
p178
aV    2336 cmd.exe              0x0000000077640000 True   True   True  \u005cWindows\u005cSystem32\u005ckernel32.dll
p179
aV    2336 cmd.exe              0x000007feff630000 True   True   True  \u005cWindows\u005cSystem32\u005clpk.dll
p180
aV    2336 cmd.exe              0x0000000077760000 True   True   True  \u005cWindows\u005cSystem32\u005cntdll.dll
p181
aV    2336 cmd.exe              0x0000000077540000 True   True   True  \u005cWindows\u005cSystem32\u005cuser32.dll
p182
aV    2336 cmd.exe              0x000007fefde90000 True   True   True  \u005cWindows\u005cSystem32\u005cgdi32.dll
p183
aV    2336 cmd.exe              0x000007fef9b40000 True   True   True  \u005cWindows\u005cSystem32\u005cwinbrand.dll
p184
aV    2336 cmd.exe              0x000007fefec90000 True   True   True  \u005cWindows\u005cSystem32\u005cmsctf.dll
p185
aV    2336 cmd.exe              0x000007fefd550000 True   True   True  \u005cWindows\u005cSystem32\u005capphelp.dll
p186
aV    2336 cmd.exe              0x000007feff9f0000 True   True   True  \u005cWindows\u005cSystem32\u005cimm32.dll
p187
aV    2336 cmd.exe              0x000007fefda20000 True   True   True  \u005cWindows\u005cSystem32\u005cKernelBase.dll
p188
aV    2336 cmd.exe              0x000007feff8e0000 True   True   True  \u005cWindows\u005cSystem32\u005cmsvcrt.dll
p189
aV    2344 conhost.exe          0x0000000000040000 False  False  False \u005cWindows\u005cSystem32\u005cen-US\u005cconhost.exe.mui
p190
aV    2344 conhost.exe          0x0000000077540000 True   True   True  \u005cWindows\u005cSystem32\u005cuser32.dll
p191
aV    2344 conhost.exe          0x000007fefef70000 True   True   True  \u005cWindows\u005cSystem32\u005cusp10.dll
p192
aV    2344 conhost.exe          0x0000000077760000 True   True   True  \u005cWindows\u005cSystem32\u005cntdll.dll
p193
aV    2344 conhost.exe          0x000007fefc170000 True   True   True  \u005cWindows\u005cwinsxs\u005camd64_microsoft.windows.common-controls_6595b64144ccf1df_6.0.7600.16385_none_fa645303170382f6\u005ccomctl32.dll
p194
aV    2344 conhost.exe          0x000007fefd5b0000 True   True   True  \u005cWindows\u005cSystem32\u005ccryptbase.dll
p195
aV    2344 conhost.exe          0x000007feff7c0000 True   True   True  \u005cWindows\u005cSystem32\u005cshlwapi.dll
p196
aV    2344 conhost.exe          0x000007feff9f0000 True   True   True  \u005cWindows\u005cSystem32\u005cimm32.dll
p197
aV    2344 conhost.exe          0x000007fefee40000 True   True   True  \u005cWindows\u005cSystem32\u005crpcrt4.dll
p198
aV    2344 conhost.exe          0x000007feff040000 True   True   True  \u005cWindows\u005cSystem32\u005coleaut32.dll
p199
aV    2344 conhost.exe          0x000007fefde90000 True   True   True  \u005cWindows\u005cSystem32\u005cgdi32.dll
p200
aV    2344 conhost.exe          0x000007feff120000 True   True   True  \u005cWindows\u005cSystem32\u005cole32.dll
p201
aV    2344 conhost.exe          0x000007feff8e0000 True   True   True  \u005cWindows\u005cSystem32\u005cmsvcrt.dll
p202
aV    2344 conhost.exe          0x00000000ff920000 True   False  True  \u005cWindows\u005cSystem32\u005cconhost.exe
p203
aV    2344 conhost.exe          0x000007fefdbc0000 True   True   True  \u005cWindows\u005cSystem32\u005cadvapi32.dll
p204
aV    2344 conhost.exe          0x000007feff980000 True   True   True  \u005cWindows\u005cSystem32\u005csechost.dll
p205
aV    2344 conhost.exe          0x000007fefbf90000 True   True   True  \u005cWindows\u005cSystem32\u005cuxtheme.dll
p206
aV    2344 conhost.exe          0x000007feff630000 True   True   True  \u005cWindows\u005cSystem32\u005clpk.dll
p207
aV    2344 conhost.exe          0x000007fefda20000 True   True   True  \u005cWindows\u005cSystem32\u005cKernelBase.dll
p208
aV    2344 conhost.exe          0x0000000077640000 True   True   True  \u005cWindows\u005cSystem32\u005ckernel32.dll
p209
aV    2344 conhost.exe          0x000007fefec90000 True   True   True  \u005cWindows\u005cSystem32\u005cmsctf.dll
p210
aV    2344 conhost.exe          0x000007fefbb60000 True   True   True  \u005cWindows\u005cSystem32\u005cdwmapi.dll
p211
aV    2776 sppsvc.exe           0x000007fef4130000 True   True   True  
p212
aV    2776 sppsvc.exe           0x000007fefcd70000 True   True   True  \u005cWindows\u005cSystem32\u005cdnsapi.dll
p213
aV    2776 sppsvc.exe           0x00000000ff090000 True   False  True  
p214
aV    2776 sppsvc.exe           0x000007feff040000 True   True   True  \u005cWindows\u005cSystem32\u005coleaut32.dll
p215
aV    2776 sppsvc.exe           0x000007fef3f10000 True   True   True  
p216
aV    2776 sppsvc.exe           0x000007fefd520000 True   True   True  \u005cWindows\u005cSystem32\u005csspicli.dll
p217
aV    2776 sppsvc.exe           0x000007feff330000 True   True   True  \u005cWindows\u005cSystem32\u005cclbcatq.dll
p218
aV    2776 sppsvc.exe           0x000007fefcf50000 True   True   True  \u005cWindows\u005cSystem32\u005ccryptsp.dll
p219
aV    2776 sppsvc.exe           0x000007feffa20000 True   True   True  \u005cWindows\u005cSystem32\u005cws2_32.dll
p220
aV    2776 sppsvc.exe           0x000007fefcc50000 True   True   True  \u005cWindows\u005cSystem32\u005crsaenh.dll
p221
aV    2804 svchost.exe          0x000007fef4230000 True   True   True  ????
p222
aV    2804 svchost.exe          0x000007fefd5b0000 True   True   True  \u005cWindows\u005cSystem32\u005ccryptbase.dll
p223
aV    2804 svchost.exe          0x000007fef4210000 True   True   True  
p224
aV    2804 svchost.exe          0x000007fefd0f0000 True   True   True  \u005cWindows\u005cSystem32\u005cncrypt.dll
p225
aV    2804 svchost.exe          0x000007fefd0c0000 True   True   True  \u005cWindows\u005cSystem32\u005cbcrypt.dll
p226
aV    2804 svchost.exe          0x000007fef4310000 True   True   True  
p227
aV    2804 svchost.exe          0x0000000077920000 True   True   True  \u005cWindows\u005cSystem32\u005cpsapi.dll
p228
aV    2804 svchost.exe          0x000007fef47b0000 True   True   True  
p229
aV    2804 svchost.exe          0x000007fefcb90000 True   True   True  \u005cWindows\u005cSystem32\u005cbcryptprimitives.dll
p230
aV    2804 svchost.exe          0x000007fefcc50000 True   True   True  \u005cWindows\u005cSystem32\u005crsaenh.dll
p231
aV    2804 svchost.exe          0x000007fefd6a0000 True   True   True  \u005cWindows\u005cSystem32\u005cRpcRtRemote.dll
p232
aV    2804 svchost.exe          0x000007fefd4f0000 True   True   True  \u005cWindows\u005cSystem32\u005csecur32.dll
p233
asVAdded Entries
p234
(lp235
V     324 csrss.exe            0x00000000026c0000 False  False  False \u005cWindows\u005cFonts\u005ccga40woa.fon
p236
aV     324 csrss.exe            0x00000000026a0000 False  False  False \u005cWindows\u005cFonts\u005cvgaoem.fon
p237
aV     324 csrss.exe            0x00000000026b0000 False  False  False \u005cWindows\u005cFonts\u005cdosapp.fon
p238
aV     324 csrss.exe            0x00000000026e0000 False  False  False \u005cWindows\u005cFonts\u005cega40woa.fon
p239
aV     324 csrss.exe            0x00000000026d0000 False  False  False \u005cWindows\u005cFonts\u005ccga80woa.fon
p240
aV     476 lsass.exe            0x000007fef4020000 True   True   True  \u005cWindows\u005cSystem32\u005cdssenh.dll
p241
aV     476 lsass.exe            0x000007fefc9e0000 True   True   True  \u005cWindows\u005cSystem32\u005cgpapi.dll
p242
aV     704 svchost.exe          0x000007fefb860000 True   True   True  \u005cWindows\u005cSystem32\u005cwkscli.dll
p243
aV     704 svchost.exe          0x000007fef8530000 True   True   True  \u005cWindows\u005cSystem32\u005cwbem\u005cwbemsvc.dll
p244
aV     704 svchost.exe          0x000007fef45b0000 True   True   True  \u005cWindows\u005cSystem32\u005ccabinet.dll
p245
aV     704 svchost.exe          0x000007fef45d0000 True   True   True  \u005cWindows\u005cSystem32\u005cwuapi.dll
p246
aV     704 svchost.exe          0x000007fef8820000 True   True   True  \u005cWindows\u005cSystem32\u005cntdsapi.dll
p247
aV     704 svchost.exe          0x000007fefb880000 True   True   True  \u005cWindows\u005cSystem32\u005cnetutils.dll
p248
aV     704 svchost.exe          0x000007fefd830000 True   True   True  \u005cWindows\u005cSystem32\u005cwintrust.dll
p249
aV     704 svchost.exe          0x000007fefb940000 True   True   True  \u005cWindows\u005cSystem32\u005cwscsvc.dll
p250
aV     704 svchost.exe          0x000007fefca00000 True   True   True  \u005cWindows\u005cSystem32\u005cuserenv.dll
p251
aV     704 svchost.exe          0x000007fef8810000 True   True   True  \u005cWindows\u005cSystem32\u005cwbem\u005cwbemprox.dll
p252
aV     704 svchost.exe          0x000007fef8ab0000 True   True   True  \u005cWindows\u005cSystem32\u005cwbemcomn.dll
p253
aV     704 svchost.exe          0x000007fef8850000 True   True   True  \u005cWindows\u005cSystem32\u005cwbem\u005cfastprox.dll
p254
aV     704 svchost.exe          0x000007fefd870000 True   True   True  \u005cWindows\u005cSystem32\u005ccrypt32.dll
p255
aV     704 svchost.exe          0x000007fef4680000 True   True   True  \u005cWindows\u005cSystem32\u005cdbghelp.dll
p256
aV     704 svchost.exe          0x000007fefd6c0000 True   True   True  \u005cWindows\u005cSystem32\u005cprofapi.dll
p257
aV     704 svchost.exe          0x000007fefd760000 True   True   True  \u005cWindows\u005cSystem32\u005cmsasn1.dll
p258
aV     860 svchost.exe          0x000007fef59d0000 True   True   True  \u005cWindows\u005cSystem32\u005cwbem\u005cNCProv.dll
p259
aV     860 svchost.exe          0x0000000077920000 True   True   True  \u005cWindows\u005cSystem32\u005cpsapi.dll
p260
aV     860 svchost.exe          0x000007fef3190000 True   True   True  \u005cWindows\u005cSystem32\u005caelupsvc.dll
p261
aV     860 svchost.exe          0x000007fefa080000 True   True   True  \u005cWindows\u005cSystem32\u005cwer.dll
p262
aV     860 svchost.exe          0x000007fef45b0000 True   True   True  \u005cWindows\u005cSystem32\u005ccabinet.dll
p263
aV     860 svchost.exe          0x000007fefd0a0000 True   True   True  \u005cWindows\u005cSystem32\u005cwmsgapi.dll
p264
aV     860 svchost.exe          0x00000000016f0000 False  False  False \u005cWindows\u005cSystem32\u005cen-US\u005cwuaueng.dll.mui
p265
aV     860 svchost.exe          0x000007fef4350000 True   True   True  \u005cWindows\u005cSystem32\u005cwuaueng.dll
p266
aV     860 svchost.exe          0x000007fefb930000 True   True   True  \u005cWindows\u005cSystem32\u005cmspatcha.dll
p267
aV     860 svchost.exe          0x000007fef6e90000 True   True   True  \u005cWindows\u005cSystem32\u005cesent.dll
p268
aV     860 svchost.exe          0x000007fef7900000 True   True   True  \u005cWindows\u005cSystem32\u005cwinspool.drv
p269
aV    1004 svchost.exe          0x000007fefc9e0000 True   True   True  \u005cWindows\u005cSystem32\u005cgpapi.dll
p270
aV    1004 svchost.exe          0x000007fef31b0000 True   True   True  \u005cWindows\u005cSystem32\u005cvmictimeprovider.dll
p271
aV    1004 svchost.exe          0x000007fefca00000 True   True   True  \u005cWindows\u005cSystem32\u005cuserenv.dll
p272
aV    1004 svchost.exe          0x000007fef31d0000 True   True   True  \u005cWindows\u005cSystem32\u005cw32time.dll
p273
aV    1004 svchost.exe          0x000007fefb230000 True   True   True  \u005cWindows\u005cSystem32\u005cdsrole.dll
p274
aV    1004 svchost.exe          0x000007fefd1f0000 True   True   True  \u005cWindows\u005cSystem32\u005ccryptdll.dll
p275
aV    1004 svchost.exe          0x000007fefd140000 True   True   True  \u005cWindows\u005cSystem32\u005cauthz.dll
p276
aV    1004 svchost.exe          0x000007fefc830000 True   True   True  \u005cWindows\u005cSystem32\u005cversion.dll
p277
aV    1004 svchost.exe          0x000007fefb9e0000 True   True   True  \u005cWindows\u005cSystem32\u005crasadhlp.dll
p278
aV    1004 svchost.exe          0x000007fefcef0000 True   True   True  \u005cWindows\u005cSystem32\u005cmswsock.dll
p279
aV    1004 svchost.exe          0x000007fefcd40000 True   True   True  \u005cWindows\u005cSystem32\u005clogoncli.dll
p280
aV    1004 svchost.exe          0x000007fefc900000 True   True   True  \u005cWindows\u005cSystem32\u005cWSHTCPIP.DLL
p281
aV    1004 svchost.exe          0x000007fefb500000 True   True   True  \u005cWindows\u005cSystem32\u005cPeerDist.dll
p282
aV    1004 svchost.exe          0x000007fefcc50000 True   True   True  \u005cWindows\u005cSystem32\u005crsaenh.dll
p283
aV    1004 svchost.exe          0x000007fefbb60000 True   True   True  \u005cWindows\u005cSystem32\u005cdwmapi.dll
p284
aV    1004 svchost.exe          0x000007fefd6c0000 True   True   True  \u005cWindows\u005cSystem32\u005cprofapi.dll
p285
aV    1004 svchost.exe          0x000007fefcee0000 True   True   True  \u005cWindows\u005cSystem32\u005cwship6.dll
p286
aV    1004 svchost.exe          0x000007fefcd70000 True   True   True  \u005cWindows\u005cSystem32\u005cdnsapi.dll
p287
aV     856 svchost.exe          0x000007fef6e90000 True   True   True  \u005cWindows\u005cSystem32\u005cesent.dll
p288
aV     856 svchost.exe          0x0000000077920000 True   True   True  \u005cWindows\u005cSystem32\u005cpsapi.dll
p289
aV    1084 explorer.exe         0x000007fef4060000 True   True   True  \u005cProgram Files\u005cInternet Explorer\u005cieproxy.dll
p290
aV    1084 explorer.exe         0x000007fef40e0000 True   True   True  \u005cWindows\u005cSystem32\u005cframedynos.dll
p291
aV    1084 explorer.exe         0x000007fef41e0000 True   True   True  \u005cWindows\u005cSystem32\u005cwscinterop.dll
p292
aV    1084 explorer.exe         0x000007fef4210000 True   True   True  \u005cWindows\u005cSystem32\u005cwscapi.dll
p293
aV    1084 explorer.exe         0x000007fef41b0000 True   True   True  \u005cWindows\u005cSystem32\u005chcproviders.dll
p294
aV    1084 explorer.exe         0x0000000003fd0000 False  False  False \u005cWindows\u005cSystem32\u005cen-US\u005cActionCenter.dll.mui
p295
aV    1084 explorer.exe         0x000007fef3df0000 True   True   True  \u005cWindows\u005cSystem32\u005cwscui.cpl
p296
aV    1084 explorer.exe         0x0000000003df0000 False  False  False \u005cWindows\u005cSystem32\u005cmsxml6r.dll
p297
aV    1084 explorer.exe         0x000007fef41c0000 True   True   True  \u005cWindows\u005cSystem32\u005cwercplsupport.dll
p298
aV    1084 explorer.exe         0x000007fef3cb0000 True   True   True  \u005cWindows\u005cSystem32\u005cwerconcpl.dll
p299
aV    1084 explorer.exe         0x000007fef7ee0000 True   True   True  \u005cWindows\u005cSystem32\u005cmsxml6.dll
p300
aV    1164 spoolsv.exe          0x00000000001b0000 False  False  False \u005cWindows\u005cSystem32\u005cmsxml6r.dll
p301
aV    1164 spoolsv.exe          0x000007fefc9e0000 True   True   True  \u005cWindows\u005cSystem32\u005cgpapi.dll
p302
aV    1164 spoolsv.exe          0x000007fef4a30000 True   True   True  \u005cWindows\u005cSystem32\u005cspool\u005cprtprocs\u005cx64\u005cwinprint.dll
p303
aV    1164 spoolsv.exe          0x000007fef4970000 True   True   True  \u005cWindows\u005cSystem32\u005cwin32spl.dll
p304
aV    1164 spoolsv.exe          0x000007fef5970000 True   True   True  \u005cWindows\u005cSystem32\u005csnmpapi.dll
p305
aV    1164 spoolsv.exe          0x000007fef5990000 True   True   True  \u005cWindows\u005cSystem32\u005cspoolss.dll
p306
aV    1164 spoolsv.exe          0x000007fef9050000 True   True   True  \u005cWindows\u005cSystem32\u005cfundisc.dll
p307
aV    1164 spoolsv.exe          0x000007fef59b0000 True   True   True  \u005cWindows\u005cSystem32\u005cumb.dll
p308
aV    1164 spoolsv.exe          0x000007fefb160000 True   True   True  \u005cWindows\u005cSystem32\u005cwinnsi.dll
p309
aV    1164 spoolsv.exe          0x000007fefd6c0000 True   True   True  \u005cWindows\u005cSystem32\u005cprofapi.dll
p310
aV    1164 spoolsv.exe          0x000007fef4940000 True   True   True  \u005cWindows\u005cSystem32\u005cinetpp.dll
p311
aV    1164 spoolsv.exe          0x000007fefb230000 True   True   True  \u005cWindows\u005cSystem32\u005cdsrole.dll
p312
aV    1164 spoolsv.exe          0x000007fefc840000 True   True   True  \u005cWindows\u005cSystem32\u005cFirewallAPI.dll
p313
aV    1164 spoolsv.exe          0x000007fef4a50000 True   True   True  \u005cWindows\u005cSystem32\u005cWSDMon.dll
p314
aV    1164 spoolsv.exe          0x000007fefcee0000 True   True   True  \u005cWindows\u005cSystem32\u005cwship6.dll
p315
aV    1164 spoolsv.exe          0x000007fefcb50000 True   True   True  \u005cWindows\u005cSystem32\u005ccredssp.dll
p316
aV    1164 spoolsv.exe          0x000007fefca20000 True   True   True  \u005cWindows\u005cSystem32\u005cdevrtl.dll
p317
aV    1164 spoolsv.exe          0x000007fefb880000 True   True   True  \u005cWindows\u005cSystem32\u005cnetutils.dll
p318
aV    1164 spoolsv.exe          0x000007fef4a90000 True   True   True  \u005cWindows\u005cSystem32\u005cWlS0WndH.dll
p319
aV    1164 spoolsv.exe          0x000007fefcef0000 True   True   True  \u005cWindows\u005cSystem32\u005cmswsock.dll
p320
aV    1164 spoolsv.exe          0x000007fef7900000 True   True   True  \u005cWindows\u005cSystem32\u005cwinspool.drv
p321
aV    1164 spoolsv.exe          0x000007fefca40000 True   True   True  \u005cWindows\u005cSystem32\u005cSPInf.dll
p322
aV    1164 spoolsv.exe          0x000007fefd520000 True   True   True  \u005cWindows\u005cSystem32\u005csspicli.dll
p323
aV    1164 spoolsv.exe          0x000007feff7c0000 True   True   True  \u005cWindows\u005cSystem32\u005cshlwapi.dll
p324
aV    1164 spoolsv.exe          0x000007feff330000 True   True   True  \u005cWindows\u005cSystem32\u005cclbcatq.dll
p325
aV    1164 spoolsv.exe          0x000007fefd830000 True   True   True  \u005cWindows\u005cSystem32\u005cwintrust.dll
p326
aV    1164 spoolsv.exe          0x000007fef9b50000 True   True   True  \u005cWindows\u005cSystem32\u005cPrintIsolationProxy.dll
p327
aV    1164 spoolsv.exe          0x000007fef5960000 True   True   True  \u005cWindows\u005cSystem32\u005cusbmon.dll
p328
aV    1164 spoolsv.exe          0x000007fefcc50000 True   True   True  \u005cWindows\u005cSystem32\u005crsaenh.dll
p329
aV    1164 spoolsv.exe          0x000007fef5980000 True   True   True  \u005cWindows\u005cSystem32\u005cFXSMON.dll
p330
aV    1164 spoolsv.exe          0x000007fefc900000 True   True   True  \u005cWindows\u005cSystem32\u005cWSHTCPIP.DLL
p331
aV    1164 spoolsv.exe          0x000007fefa760000 True   True   True  \u005cWindows\u005cSystem32\u005ccscapi.dll
p332
aV    1164 spoolsv.exe          0x000007fefafb0000 True   True   True  \u005cWindows\u005cSystem32\u005cFWPUCLNT.DLL
p333
aV    1164 spoolsv.exe          0x000007fefd450000 True   True   True  \u005cWindows\u005cSystem32\u005csrvcli.dll
p334
aV    1164 spoolsv.exe          0x000007fefb9e0000 True   True   True  \u005cWindows\u005cSystem32\u005crasadhlp.dll
p335
aV    1164 spoolsv.exe          0x000007fefd660000 True   True   True  \u005cWindows\u005cSystem32\u005cwinsta.dll
p336
aV    1164 spoolsv.exe          0x000007fefca00000 True   True   True  \u005cWindows\u005cSystem32\u005cuserenv.dll
p337
aV    1164 spoolsv.exe          0x000007fefc830000 True   True   True  \u005cWindows\u005cSystem32\u005cversion.dll
p338
aV    1164 spoolsv.exe          0x000007fef4a40000 True   True   True  \u005cWindows\u005cSystem32\u005cfdPnp.dll
p339
aV    1164 spoolsv.exe          0x000007fefcf50000 True   True   True  \u005cWindows\u005cSystem32\u005ccryptsp.dll
p340
aV    1164 spoolsv.exe          0x0000000002c50000 False  False  False \u005cWindows\u005cSystem32\u005cen-US\u005cKernelBase.dll.mui
p341
aV    1164 spoolsv.exe          0x000007fefc660000 True   True   True  \u005cWindows\u005cSystem32\u005cpowrprof.dll
p342
aV    1164 spoolsv.exe          0x000007fefd870000 True   True   True  \u005cWindows\u005cSystem32\u005ccrypt32.dll
p343
aV    1164 spoolsv.exe          0x000007fef91b0000 True   True   True  \u005cWindows\u005cSystem32\u005cWSDApi.dll
p344
aV    1164 spoolsv.exe          0x000007fef9090000 True   True   True  \u005cWindows\u005cSystem32\u005cwebservices.dll
p345
aV    1164 spoolsv.exe          0x000007fef4aa0000 True   True   True  \u005cWindows\u005cSystem32\u005cwsnmp32.dll
p346
aV    1164 spoolsv.exe          0x000007fefb250000 True   True   True  \u005cWindows\u005cSystem32\u005catl.dll
p347
aV    1164 spoolsv.exe          0x000007fefb170000 True   True   True  \u005cWindows\u005cSystem32\u005cIPHLPAPI.DLL
p348
aV    1164 spoolsv.exe          0x000007fef4ac0000 True   True   True  \u005cWindows\u005cSystem32\u005ctcpmon.dll
p349
aV    1164 spoolsv.exe          0x00000000ffcd0000 True   False  True  \u005cWindows\u005cSystem32\u005cspoolsv.exe
p350
aV    1164 spoolsv.exe          0x000007fefd760000 True   True   True  \u005cWindows\u005cSystem32\u005cmsasn1.dll
p351
aV    1164 spoolsv.exe          0x000007fef7ee0000 True   True   True  \u005cWindows\u005cSystem32\u005cmsxml6.dll
p352
aV    1164 spoolsv.exe          0x000007fefd4f0000 True   True   True  \u005cWindows\u005cSystem32\u005csecur32.dll
p353
aV    1164 spoolsv.exe          0x000007fef4b00000 True   True   True  \u005cWindows\u005cSystem32\u005clocalspl.dll
p354
aV    1164 spoolsv.exe          0x000007fefcd70000 True   True   True  \u005cWindows\u005cSystem32\u005cdnsapi.dll
p355
aV    1196 taskhost.exe         0x00000000001d0000 False  False  False \u005cWindows\u005cSystem32\u005cen-US\u005cwdmaud.drv.mui
p356
aV    1196 taskhost.exe         0x0000000001fd0000 False  False  False \u005cWindows\u005cSystem32\u005cen-US\u005cMMDevAPI.dll.mui
p357
aV    1196 taskhost.exe         0x000007fefbff0000 True   True   True  \u005cWindows\u005cSystem32\u005cpropsys.dll
p358
aV    1196 taskhost.exe         0x000007fefbb80000 True   True   True  \u005cWindows\u005cSystem32\u005cMMDevAPI.dll
p359
aV    1196 taskhost.exe         0x000007fefdcb0000 True   True   True  \u005cWindows\u005cSystem32\u005csetupapi.dll
p360
aV    1196 taskhost.exe         0x0000000073e50000 True   True   True  \u005cWindows\u005cSystem32\u005cksuser.dll
p361
aV    1196 taskhost.exe         0x000007fef98a0000 True   True   True  \u005cWindows\u005cSystem32\u005cmsacm32.dll
p362
aV    1196 taskhost.exe         0x000007fef98c0000 True   True   True  \u005cWindows\u005cSystem32\u005cmsacm32.drv
p363
aV    1196 taskhost.exe         0x000007fefd9e0000 True   True   True  \u005cWindows\u005cSystem32\u005ccfgmgr32.dll
p364
aV    1196 taskhost.exe         0x000007fef9920000 True   True   True  \u005cWindows\u005cSystem32\u005cwdmaud.drv
p365
aV    1196 taskhost.exe         0x000007fefd810000 True   True   True  \u005cWindows\u005cSystem32\u005cdevobj.dll
p366
aV    1196 taskhost.exe         0x000007fefb630000 True   True   True  \u005cWindows\u005cSystem32\u005cavrt.dll
p367
aV    1196 taskhost.exe         0x000007fef98d0000 True   True   True  \u005cWindows\u005cSystem32\u005cAudioSes.dll
p368
aV    1196 taskhost.exe         0x000007fef9890000 True   True   True  \u005cWindows\u005cSystem32\u005cmidimap.dll
p369
aV    1356 SearchIndexer.       0x0000000074820000 True   True   True  \u005cWindows\u005cSystem32\u005cNlsLexicons0010.dll
p370
aV    1356 SearchIndexer.       0x000007fef2c60000 True   True   True  \u005cWindows\u005cSystem32\u005cNlsData0010.dll
p371
aV    1356 SearchIndexer.       0x000007fef3180000 True   True   True  \u005cWindows\u005cSystem32\u005cELSCore.dll
p372
aV    1356 SearchIndexer.       0x000007fef30d0000 True   True   True  \u005cWindows\u005cSystem32\u005celslad.dll
p373
aV    2776 sppsvc.exe           0x0000000077760000 True   True   True  \u005cWindows\u005cSystem32\u005cntdll.dll
p374
aV    2776 sppsvc.exe           0x0000000077640000 True   True   True  \u005cWindows\u005cSystem32\u005ckernel32.dll
p375
aV    2776 sppsvc.exe           0x00000000ff090000 True   False  True  \u005cWindows\u005cSystem32\u005csppsvc.exe
p376
aV    2804 svchost.exe          0x000007fef4210000 True   True   True  \u005cWindows\u005cSystem32\u005cwscapi.dll
p377
aV    2804 svchost.exe          0x000007fef47b0000 True   True   True  \u005cProgram Files\u005cWindows Defender\u005cMpClient.dll
p378
aV    3044 slui.exe             0x0000000000170000 False  False  False \u005cWindows\u005cSystem32\u005cen-US\u005cslui.exe.mui
p379
aV    3044 slui.exe             0x00000000004b0000 False  False  False \u005cWindows\u005cSystem32\u005cen-US\u005csppcommdlg.dll.mui
p380
aV    3044 slui.exe             0x000007fef9b40000 True   True   True  \u005cWindows\u005cSystem32\u005cwinbrand.dll
p381
aV    3044 slui.exe             0x000007fefc170000 True   True   True  \u005cWindows\u005cwinsxs\u005camd64_microsoft.windows.common-controls_6595b64144ccf1df_6.0.7600.16385_none_fa645303170382f6\u005ccomctl32.dll
p382
aV    3044 slui.exe             0x0000000077760000 True   True   True  \u005cWindows\u005cSystem32\u005cntdll.dll
p383
aV    3044 slui.exe             0x000007fef3990000 True   True   True  \u005cWindows\u005cSystem32\u005csppcomapi.dll
p384
aV    3044 slui.exe             0x000007fefd5b0000 True   True   True  \u005cWindows\u005cSystem32\u005ccryptbase.dll
p385
aV    3044 slui.exe             0x000007fefdbc0000 True   True   True  \u005cWindows\u005cSystem32\u005cadvapi32.dll
p386
aV    3044 slui.exe             0x000007fef39d0000 True   True   True  \u005cWindows\u005cSystem32\u005csppcommdlg.dll
p387
aV    3044 slui.exe             0x000007fefdcb0000 True   True   True  \u005cWindows\u005cSystem32\u005csetupapi.dll
p388
aV    3044 slui.exe             0x000007feff9f0000 True   True   True  \u005cWindows\u005cSystem32\u005cimm32.dll
p389
aV    3044 slui.exe             0x0000000077640000 True   True   True  \u005cWindows\u005cSystem32\u005ckernel32.dll
p390
aV    3044 slui.exe             0x0000000000420000 False  False  False \u005cWindows\u005cSystem32\u005cstdole2.tlb
p391
aV    3044 slui.exe             0x000007feff630000 True   True   True  \u005cWindows\u005cSystem32\u005clpk.dll
p392
aV    3044 slui.exe             0x000007fefb960000 True   True   True  \u005cWindows\u005cSystem32\u005cwtsapi32.dll
p393
aV    3044 slui.exe             0x000007feff040000 True   True   True  \u005cWindows\u005cSystem32\u005coleaut32.dll
p394
aV    3044 slui.exe             0x000007fef3a70000 True   True   True  \u005cWindows\u005cSystem32\u005cslwga.dll
p395
aV    3044 slui.exe             0x000007fef6a90000 True   True   True  \u005cWindows\u005cSystem32\u005crasapi32.dll
p396
aV    3044 slui.exe             0x000007fefdca0000 True   True   True  \u005cWindows\u005cSystem32\u005cnsi.dll
p397
aV    3044 slui.exe             0x00000000004c0000 False  False  False \u005cWindows\u005cSystem32\u005cen-US\u005cduser.dll.mui
p398
aV    3044 slui.exe             0x000007fefc370000 True   True   True  \u005cWindows\u005cSystem32\u005ccryptui.dll
p399
aV    3044 slui.exe             0x000007feff8e0000 True   True   True  \u005cWindows\u005cSystem32\u005cmsvcrt.dll
p400
aV    3044 slui.exe             0x000007fefda20000 True   True   True  \u005cWindows\u005cSystem32\u005cKernelBase.dll
p401
aV    3044 slui.exe             0x000007fef9d50000 True   True   True  \u005cWindows\u005cSystem32\u005cmsi.dll
p402
aV    3044 slui.exe             0x000007fef6a70000 True   True   True  \u005cWindows\u005cSystem32\u005crasman.dll
p403
aV    3044 slui.exe             0x000007feff120000 True   True   True  \u005cWindows\u005cSystem32\u005cole32.dll
p404
aV    3044 slui.exe             0x000007feff330000 True   True   True  \u005cWindows\u005cSystem32\u005cclbcatq.dll
p405
aV    3044 slui.exe             0x0000000077540000 True   True   True  \u005cWindows\u005cSystem32\u005cuser32.dll
p406
aV    3044 slui.exe             0x000007fefde90000 True   True   True  \u005cWindows\u005cSystem32\u005cgdi32.dll
p407
aV    3044 slui.exe             0x00000000ffb50000 True   False  True  \u005cWindows\u005cSystem32\u005cslui.exe
p408
aV    3044 slui.exe             0x0000000002d60000 False  False  False \u005cWindows\u005cSystem32\u005cimageres.dll
p409
aV    3044 slui.exe             0x000007fefef70000 True   True   True  \u005cWindows\u005cSystem32\u005cusp10.dll
p410
aV    3044 slui.exe             0x000007feff7c0000 True   True   True  \u005cWindows\u005cSystem32\u005cshlwapi.dll
p411
aV    3044 slui.exe             0x000007fefbf90000 True   True   True  \u005cWindows\u005cSystem32\u005cuxtheme.dll
p412
aV    3044 slui.exe             0x000007fef35a0000 True   True   True  \u005cWindows\u005cSystem32\u005csppcext.dll
p413
aV    3044 slui.exe             0x000007fefd5c0000 True   True   True  \u005cWindows\u005cSystem32\u005csxs.dll
p414
aV    3044 slui.exe             0x000007feff3d0000 True   True   True  \u005cWindows\u005cSystem32\u005ciertutil.dll
p415
aV    3044 slui.exe             0x000007fef3950000 True   True   True  \u005cWindows\u005cSystem32\u005cWinSCard.dll
p416
aV    3044 slui.exe             0x000007fefd9e0000 True   True   True  \u005cWindows\u005cSystem32\u005ccfgmgr32.dll
p417
aV    3044 slui.exe             0x000007feffa20000 True   True   True  \u005cWindows\u005cSystem32\u005cws2_32.dll
p418
aV    3044 slui.exe             0x000007fef8e00000 True   True   True  \u005cWindows\u005cSystem32\u005cwebio.dll
p419
aV    3044 slui.exe             0x000007fefbc20000 True   True   True  \u005cWindows\u005cSystem32\u005cduser.dll
p420
aV    3044 slui.exe             0x000007fefd810000 True   True   True  \u005cWindows\u005cSystem32\u005cdevobj.dll
p421
aV    3044 slui.exe             0x0000000001c50000 False  False  False \u005cWindows\u005cwinsxs\u005camd64_microsoft.windows.c..-controls.resources_6595b64144ccf1df_6.0.7600.16385_en-us_106f9be843a9b4e3\u005ccomctl32.dll.mui
p422
aV    3044 slui.exe             0x000007fefb220000 True   True   True  \u005cWindows\u005cSystem32\u005cslc.dll
p423
aV    3044 slui.exe             0x000007fef8e70000 True   True   True  \u005cWindows\u005cSystem32\u005cwinhttp.dll
p424
aV    3044 slui.exe             0x000007fefee40000 True   True   True  \u005cWindows\u005cSystem32\u005crpcrt4.dll
p425
aV    3044 slui.exe             0x000007fef3a40000 True   True   True  \u005cWindows\u005cSystem32\u005csppc.dll
p426
aV    3044 slui.exe             0x000007fefcf50000 True   True   True  \u005cWindows\u005cSystem32\u005ccryptsp.dll
p427
aV    3044 slui.exe             0x000007fefcc50000 True   True   True  \u005cWindows\u005cSystem32\u005crsaenh.dll
p428
aV    3044 slui.exe             0x000007fefd870000 True   True   True  \u005cWindows\u005cSystem32\u005ccrypt32.dll
p429
aV    3044 slui.exe             0x000007feff640000 True   True   True  \u005cWindows\u005cSystem32\u005curlmon.dll
p430
aV    3044 slui.exe             0x000007fefec90000 True   True   True  \u005cWindows\u005cSystem32\u005cmsctf.dll
p431
aV    3044 slui.exe             0x000007fefd6a0000 True   True   True  \u005cWindows\u005cSystem32\u005cRpcRtRemote.dll
p432
aV    3044 slui.exe             0x000007fefbb60000 True   True   True  \u005cWindows\u005cSystem32\u005cdwmapi.dll
p433
aV    3044 slui.exe             0x000007feff980000 True   True   True  \u005cWindows\u005cSystem32\u005csechost.dll
p434
aV    3044 slui.exe             0x000007fefdf00000 True   True   True  \u005cWindows\u005cSystem32\u005cshell32.dll
p435
aV    3044 slui.exe             0x000007fef3910000 True   True   True  \u005cWindows\u005cSystem32\u005ctapi32.dll
p436
aV    3044 slui.exe             0x000007fefd760000 True   True   True  \u005cWindows\u005cSystem32\u005cmsasn1.dll
p437
aV    1536 WmiPrvSE.exe         0x0000000077540000 True   True   True  \u005cWindows\u005cSystem32\u005cuser32.dll
p438
aV    1536 WmiPrvSE.exe         0x0000000077760000 True   True   True  \u005cWindows\u005cSystem32\u005cntdll.dll
p439
aV    1536 WmiPrvSE.exe         0x000007fef8530000 True   True   True  \u005cWindows\u005cSystem32\u005cwbem\u005cwbemsvc.dll
p440
aV    1536 WmiPrvSE.exe         0x000007fef8ab0000 True   True   True  \u005cWindows\u005cSystem32\u005cwbemcomn.dll
p441
aV    1536 WmiPrvSE.exe         0x0000000077640000 True   True   True  \u005cWindows\u005cSystem32\u005ckernel32.dll
p442
aV    1536 WmiPrvSE.exe         0x000007fef8850000 True   True   True  \u005cWindows\u005cSystem32\u005cwbem\u005cfastprox.dll
p443
aV    1536 WmiPrvSE.exe         0x000007fefd5b0000 True   True   True  \u005cWindows\u005cSystem32\u005ccryptbase.dll
p444
aV    1536 WmiPrvSE.exe         0x000007fef2bc0000 True   True   True  \u005cWindows\u005cSystem32\u005cwbem\u005cwmiprov.dll
p445
aV    1536 WmiPrvSE.exe         0x000007feff9f0000 True   True   True  \u005cWindows\u005cSystem32\u005cimm32.dll
p446
aV    1536 WmiPrvSE.exe         0x000007fefd6a0000 True   True   True  \u005cWindows\u005cSystem32\u005cRpcRtRemote.dll
p447
aV    1536 WmiPrvSE.exe         0x000007fef8820000 True   True   True  \u005cWindows\u005cSystem32\u005cntdsapi.dll
p448
aV    1536 WmiPrvSE.exe         0x000007feff630000 True   True   True  \u005cWindows\u005cSystem32\u005clpk.dll
p449
aV    1536 WmiPrvSE.exe         0x000007feff040000 True   True   True  \u005cWindows\u005cSystem32\u005coleaut32.dll
p450
aV    1536 WmiPrvSE.exe         0x000007fef8480000 True   True   True  \u005cWindows\u005cSystem32\u005cwbem\u005cwmiutils.dll
p451
aV    1536 WmiPrvSE.exe         0x000007fefde90000 True   True   True  \u005cWindows\u005cSystem32\u005cgdi32.dll
p452
aV    1536 WmiPrvSE.exe         0x000007fefdca0000 True   True   True  \u005cWindows\u005cSystem32\u005cnsi.dll
p453
aV    1536 WmiPrvSE.exe         0x000007fef82b0000 True   True   True  \u005cWindows\u005cSystem32\u005cncobjapi.dll
p454
aV    1536 WmiPrvSE.exe         0x000007feff8e0000 True   True   True  \u005cWindows\u005cSystem32\u005cmsvcrt.dll
p455
aV    1536 WmiPrvSE.exe         0x000007fefda20000 True   True   True  \u005cWindows\u005cSystem32\u005cKernelBase.dll
p456
aV    1536 WmiPrvSE.exe         0x000007fefdbc0000 True   True   True  \u005cWindows\u005cSystem32\u005cadvapi32.dll
p457
aV    1536 WmiPrvSE.exe         0x000007feff330000 True   True   True  \u005cWindows\u005cSystem32\u005cclbcatq.dll
p458
aV    1536 WmiPrvSE.exe         0x000007fefef70000 True   True   True  \u005cWindows\u005cSystem32\u005cusp10.dll
p459
aV    1536 WmiPrvSE.exe         0x000007feff980000 True   True   True  \u005cWindows\u005cSystem32\u005csechost.dll
p460
aV    1536 WmiPrvSE.exe         0x000007feff9a0000 True   True   True  \u005cWindows\u005cSystem32\u005cWldap32.dll
p461
aV    1536 WmiPrvSE.exe         0x000007fefb5e0000 True   True   True  \u005cWindows\u005cSystem32\u005cntmarta.dll
p462
aV    1536 WmiPrvSE.exe         0x000007feffa20000 True   True   True  \u005cWindows\u005cSystem32\u005cws2_32.dll
p463
aV    1536 WmiPrvSE.exe         0x000007fef8810000 True   True   True  \u005cWindows\u005cSystem32\u005cwbem\u005cwbemprox.dll
p464
aV    1536 WmiPrvSE.exe         0x000007fefcf50000 True   True   True  \u005cWindows\u005cSystem32\u005ccryptsp.dll
p465
aV    1536 WmiPrvSE.exe         0x00000000ff220000 True   False  True  \u005cWindows\u005cSystem32\u005cwbem\u005cWmiPrvSE.exe
p466
aV    1536 WmiPrvSE.exe         0x000007fefee40000 True   True   True  \u005cWindows\u005cSystem32\u005crpcrt4.dll
p467
aV    1536 WmiPrvSE.exe         0x000007fefcc50000 True   True   True  \u005cWindows\u005cSystem32\u005crsaenh.dll
p468
aV    1536 WmiPrvSE.exe         0x000007fefec90000 True   True   True  \u005cWindows\u005cSystem32\u005cmsctf.dll
p469
aV    1536 WmiPrvSE.exe         0x000007feff120000 True   True   True  \u005cWindows\u005cSystem32\u005cole32.dll
p470
assVenvars
p471
(dp472
VRemoved Entries
p473
(lp474
V    1364 reader_sl.exe        0x0000000000201320 ALLUSERSPROFILE                C:\u005cProgramData
p475
aV    1364 reader_sl.exe        0x0000000000201320 APPDATA                        C:\u005cUsers\u005clophi\u005cAppData\u005cRoaming
p476
aV    1364 reader_sl.exe        0x0000000000201320 CommonProgramFiles             C:\u005cProgram Files\u005cCommon Files
p477
aV    1364 reader_sl.exe        0x0000000000201320 CommonProgramFiles(x86)        C:\u005cProgram Files (x86)\u005cCommon Files
p478
aV    1364 reader_sl.exe        0x0000000000201320 CommonProgramW6432             C:\u005cProgram Files\u005cCommon Files
p479
aV    1364 reader_sl.exe        0x0000000000201320 COMPUTERNAME                   LOPHI-PC
p480
aV    1364 reader_sl.exe        0x0000000000201320 ComSpec                        C:\u005cWindows\u005csystem32\u005ccmd.exe
p481
aV    1364 reader_sl.exe        0x0000000000201320 FP_NO_HOST_CHECK               NO
p482
aV    1364 reader_sl.exe        0x0000000000201320 HOMEDRIVE                      C:
p483
aV    1364 reader_sl.exe        0x0000000000201320 HOMEPATH                       \u005cUsers\u005clophi
p484
aV    1364 reader_sl.exe        0x0000000000201320 LOCALAPPDATA                   C:\u005cUsers\u005clophi\u005cAppData\u005cLocal
p485
aV    1364 reader_sl.exe        0x0000000000201320 LOGONSERVER                    \u005c\u005cLOPHI-PC
p486
aV    1364 reader_sl.exe        0x0000000000201320 NUMBER_OF_PROCESSORS           1
p487
aV    1364 reader_sl.exe        0x0000000000201320 OS                             Windows_NT
p488
aV    1364 reader_sl.exe        0x0000000000201320 Path                           C:\u005cWindows\u005csystem32;C:\u005cWindows;C:\u005cWindows\u005cSystem32\u005cWbem;C:\u005cWindows\u005cSystem32\u005cWindowsPowerShell\u005cv1.0\u005c;C:\u005cPython27
p489
aV    1364 reader_sl.exe        0x0000000000201320 PATHEXT                        .COM;.EXE;.BAT;.CMD;.VBS;.VBE;.JS;.JSE;.WSF;.WSH;.MSC
p490
aV    1364 reader_sl.exe        0x0000000000201320 PROCESSOR_ARCHITECTURE         AMD64
p491
aV    1364 reader_sl.exe        0x0000000000201320 PROCESSOR_IDENTIFIER           Intel64 Family 6 Model 6 Stepping 3, GenuineIntel
p492
aV    1364 reader_sl.exe        0x0000000000201320 PROCESSOR_LEVEL                6
p493
aV    1364 reader_sl.exe        0x0000000000201320 PROCESSOR_REVISION             0603
p494
aV    1364 reader_sl.exe        0x0000000000201320 ProgramData                    C:\u005cProgramData
p495
aV    1364 reader_sl.exe        0x0000000000201320 ProgramFiles                   C:\u005cProgram Files
p496
aV    1364 reader_sl.exe        0x0000000000201320 ProgramFiles(x86)              C:\u005cProgram Files (x86)
p497
aV    1364 reader_sl.exe        0x0000000000201320 ProgramW6432                   C:\u005cProgram Files
p498
aV    1364 reader_sl.exe        0x0000000000201320 PSModulePath                   C:\u005cWindows\u005csystem32\u005cWindowsPowerShell\u005cv1.0\u005cModules\u005c
p499
aV    1364 reader_sl.exe        0x0000000000201320 PUBLIC                         C:\u005cUsers\u005cPublic
p500
aV    1364 reader_sl.exe        0x0000000000201320 SESSIONNAME                    Console
p501
aV    1364 reader_sl.exe        0x0000000000201320 SystemDrive                    C:
p502
aV    1364 reader_sl.exe        0x0000000000201320 SystemRoot                     C:\u005cWindows
p503
aV    1364 reader_sl.exe        0x0000000000201320 TEMP                           C:\u005cUsers\u005clophi\u005cAppData\u005cLocal\u005cTemp
p504
aV    1364 reader_sl.exe        0x0000000000201320 TMP                            C:\u005cUsers\u005clophi\u005cAppData\u005cLocal\u005cTemp
p505
aV    1364 reader_sl.exe        0x0000000000201320 USERDOMAIN                     lophi-PC
p506
aV    1364 reader_sl.exe        0x0000000000201320 USERNAME                       lophi
p507
aV    1364 reader_sl.exe        0x0000000000201320 USERPROFILE                    C:\u005cUsers\u005clophi
p508
aV    1364 reader_sl.exe        0x0000000000201320 windir                         C:\u005cWindows
p509
aV     532 SearchProtocol       0x0000000000241320 ALLUSERSPROFILE                C:\u005cProgramData
p510
aV     532 SearchProtocol       0x0000000000241320 APPDATA                        C:\u005cWindows\u005csystem32\u005cconfig\u005csystemprofile\u005cAppData\u005cRoaming
p511
aV     532 SearchProtocol       0x0000000000241320 CommonProgramFiles             C:\u005cProgram Files\u005cCommon Files
p512
aV     532 SearchProtocol       0x0000000000241320 CommonProgramFiles(x86)        C:\u005cProgram Files (x86)\u005cCommon Files
p513
aV     532 SearchProtocol       0x0000000000241320 CommonProgramW6432             C:\u005cProgram Files\u005cCommon Files
p514
aV     532 SearchProtocol       0x0000000000241320 COMPUTERNAME                   LOPHI-PC
p515
aV     532 SearchProtocol       0x0000000000241320 ComSpec                        C:\u005cWindows\u005csystem32\u005ccmd.exe
p516
aV     532 SearchProtocol       0x0000000000241320 FP_NO_HOST_CHECK               NO
p517
aV     532 SearchProtocol       0x0000000000241320 LOCALAPPDATA                   C:\u005cWindows\u005csystem32\u005cconfig\u005csystemprofile\u005cAppData\u005cLocal
p518
aV     532 SearchProtocol       0x0000000000241320 NUMBER_OF_PROCESSORS           1
p519
aV     532 SearchProtocol       0x0000000000241320 OS                             Windows_NT
p520
aV     532 SearchProtocol       0x0000000000241320 Path                           C:\u005cWindows\u005csystem32;C:\u005cWindows;C:\u005cWindows\u005cSystem32\u005cWbem;C:\u005cWindows\u005cSystem32\u005cWindowsPowerShell\u005cv1.0\u005c;C:\u005cPython27;C:\u005cWindows\u005csystem32
p521
aV     532 SearchProtocol       0x0000000000241320 PATHEXT                        .COM;.EXE;.BAT;.CMD;.VBS;.VBE;.JS;.JSE;.WSF;.WSH;.MSC
p522
aV     532 SearchProtocol       0x0000000000241320 PROCESSOR_ARCHITECTURE         AMD64
p523
aV     532 SearchProtocol       0x0000000000241320 PROCESSOR_IDENTIFIER           Intel64 Family 6 Model 6 Stepping 3, GenuineIntel
p524
aV     532 SearchProtocol       0x0000000000241320 PROCESSOR_LEVEL                6
p525
aV     532 SearchProtocol       0x0000000000241320 PROCESSOR_REVISION             0603
p526
aV     532 SearchProtocol       0x0000000000241320 ProgramData                    C:\u005cProgramData
p527
aV     532 SearchProtocol       0x0000000000241320 ProgramFiles                   C:\u005cProgram Files
p528
aV     532 SearchProtocol       0x0000000000241320 ProgramFiles(x86)              C:\u005cProgram Files (x86)
p529
aV     532 SearchProtocol       0x0000000000241320 ProgramW6432                   C:\u005cProgram Files
p530
aV     532 SearchProtocol       0x0000000000241320 PSModulePath                   C:\u005cWindows\u005csystem32\u005cWindowsPowerShell\u005cv1.0\u005cModules\u005c
p531
aV     532 SearchProtocol       0x0000000000241320 PUBLIC                         C:\u005cUsers\u005cPublic
p532
aV     532 SearchProtocol       0x0000000000241320 SystemDrive                    C:
p533
aV     532 SearchProtocol       0x0000000000241320 SystemRoot                     C:\u005cWindows
p534
aV     532 SearchProtocol       0x0000000000241320 TEMP                           C:\u005cProgramData\u005cMicrosoft\u005cSearch\u005cData\u005cTemp\u005cusgthrsvc
p535
aV     532 SearchProtocol       0x0000000000241320 TMP                            C:\u005cProgramData\u005cMicrosoft\u005cSearch\u005cData\u005cTemp\u005cusgthrsvc
p536
aV     532 SearchProtocol       0x0000000000241320 USERDOMAIN                     WORKGROUP
p537
aV     532 SearchProtocol       0x0000000000241320 USERNAME                       LOPHI-PC$
p538
aV     532 SearchProtocol       0x0000000000241320 USERPROFILE                    C:\u005cWindows\u005csystem32\u005cconfig\u005csystemprofile
p539
aV     532 SearchProtocol       0x0000000000241320 windir                         C:\u005cWindows
p540
aV     844 SearchFilterHo       0x0000000000461320 ALLUSERSPROFILE                C:\u005cProgramData
p541
aV     844 SearchFilterHo       0x0000000000461320 APPDATA                        C:\u005cWindows\u005csystem32\u005cconfig\u005csystemprofile\u005cAppData\u005cRoaming
p542
aV     844 SearchFilterHo       0x0000000000461320 CommonProgramFiles             C:\u005cProgram Files\u005cCommon Files
p543
aV     844 SearchFilterHo       0x0000000000461320 CommonProgramFiles(x86)        C:\u005cProgram Files (x86)\u005cCommon Files
p544
aV     844 SearchFilterHo       0x0000000000461320 CommonProgramW6432             C:\u005cProgram Files\u005cCommon Files
p545
aV     844 SearchFilterHo       0x0000000000461320 COMPUTERNAME                   LOPHI-PC
p546
aV     844 SearchFilterHo       0x0000000000461320 ComSpec                        C:\u005cWindows\u005csystem32\u005ccmd.exe
p547
aV     844 SearchFilterHo       0x0000000000461320 FP_NO_HOST_CHECK               NO
p548
aV     844 SearchFilterHo       0x0000000000461320 LOCALAPPDATA                   C:\u005cWindows\u005csystem32\u005cconfig\u005csystemprofile\u005cAppData\u005cLocal
p549
aV     844 SearchFilterHo       0x0000000000461320 NUMBER_OF_PROCESSORS           1
p550
aV     844 SearchFilterHo       0x0000000000461320 OS                             Windows_NT
p551
aV     844 SearchFilterHo       0x0000000000461320 Path                           C:\u005cWindows\u005csystem32;C:\u005cWindows;C:\u005cWindows\u005cSystem32\u005cWbem;C:\u005cWindows\u005cSystem32\u005cWindowsPowerShell\u005cv1.0\u005c;C:\u005cPython27;C:\u005cWindows\u005csystem32
p552
aV     844 SearchFilterHo       0x0000000000461320 PATHEXT                        .COM;.EXE;.BAT;.CMD;.VBS;.VBE;.JS;.JSE;.WSF;.WSH;.MSC
p553
aV     844 SearchFilterHo       0x0000000000461320 PROCESSOR_ARCHITECTURE         AMD64
p554
aV     844 SearchFilterHo       0x0000000000461320 PROCESSOR_IDENTIFIER           Intel64 Family 6 Model 6 Stepping 3, GenuineIntel
p555
aV     844 SearchFilterHo       0x0000000000461320 PROCESSOR_LEVEL                6
p556
aV     844 SearchFilterHo       0x0000000000461320 PROCESSOR_REVISION             0603
p557
aV     844 SearchFilterHo       0x0000000000461320 ProgramData                    C:\u005cProgramData
p558
aV     844 SearchFilterHo       0x0000000000461320 ProgramFiles                   C:\u005cProgram Files
p559
aV     844 SearchFilterHo       0x0000000000461320 ProgramFiles(x86)              C:\u005cProgram Files (x86)
p560
aV     844 SearchFilterHo       0x0000000000461320 ProgramW6432                   C:\u005cProgram Files
p561
aV     844 SearchFilterHo       0x0000000000461320 PSModulePath                   C:\u005cWindows\u005csystem32\u005cWindowsPowerShell\u005cv1.0\u005cModules\u005c
p562
aV     844 SearchFilterHo       0x0000000000461320 PUBLIC                         C:\u005cUsers\u005cPublic
p563
aV     844 SearchFilterHo       0x0000000000461320 SystemDrive                    C:
p564
aV     844 SearchFilterHo       0x0000000000461320 SystemRoot                     C:\u005cWindows
p565
aV     844 SearchFilterHo       0x0000000000461320 TEMP                           C:\u005cProgramData\u005cMicrosoft\u005cSearch\u005cData\u005cTemp\u005cusgthrsvc
p566
aV     844 SearchFilterHo       0x0000000000461320 TMP                            C:\u005cProgramData\u005cMicrosoft\u005cSearch\u005cData\u005cTemp\u005cusgthrsvc
p567
aV     844 SearchFilterHo       0x0000000000461320 USERDOMAIN                     WORKGROUP
p568
aV     844 SearchFilterHo       0x0000000000461320 USERNAME                       LOPHI-PC$
p569
aV     844 SearchFilterHo       0x0000000000461320 USERPROFILE                    C:\u005cWindows\u005csystem32\u005cconfig\u005csystemprofile
p570
aV     844 SearchFilterHo       0x0000000000461320 windir                         C:\u005cWindows
p571
aV    2336 cmd.exe              0x00000000003bc2c0 ALLUSERSPROFILE                C:\u005cProgramData
p572
aV    2336 cmd.exe              0x00000000003bc2c0 APPDATA                        C:\u005cUsers\u005clophi\u005cAppData\u005cRoaming
p573
aV    2336 cmd.exe              0x00000000003bc2c0 CommonProgramFiles             C:\u005cProgram Files\u005cCommon Files
p574
aV    2336 cmd.exe              0x00000000003bc2c0 CommonProgramFiles(x86)        C:\u005cProgram Files (x86)\u005cCommon Files
p575
aV    2336 cmd.exe              0x00000000003bc2c0 CommonProgramW6432             C:\u005cProgram Files\u005cCommon Files
p576
aV    2336 cmd.exe              0x00000000003bc2c0 COMPUTERNAME                   LOPHI-PC
p577
aV    2336 cmd.exe              0x00000000003bc2c0 ComSpec                        C:\u005cWindows\u005csystem32\u005ccmd.exe
p578
aV    2336 cmd.exe              0x00000000003bc2c0 FP_NO_HOST_CHECK               NO
p579
aV    2336 cmd.exe              0x00000000003bc2c0 HOMEDRIVE                      C:
p580
aV    2336 cmd.exe              0x00000000003bc2c0 HOMEPATH                       \u005cUsers\u005clophi
p581
aV    2336 cmd.exe              0x00000000003bc2c0 LOCALAPPDATA                   C:\u005cUsers\u005clophi\u005cAppData\u005cLocal
p582
aV    2336 cmd.exe              0x00000000003bc2c0 LOGONSERVER                    \u005c\u005cLOPHI-PC
p583
aV    2336 cmd.exe              0x00000000003bc2c0 NUMBER_OF_PROCESSORS           1
p584
aV    2336 cmd.exe              0x00000000003bc2c0 OS                             Windows_NT
p585
aV    2336 cmd.exe              0x00000000003bc2c0 Path                           C:\u005cWindows\u005csystem32;C:\u005cWindows;C:\u005cWindows\u005cSystem32\u005cWbem;C:\u005cWindows\u005cSystem32\u005cWindowsPowerShell\u005cv1.0\u005c;C:\u005cPython27
p586
aV    2336 cmd.exe              0x00000000003bc2c0 PATHEXT                        .COM;.EXE;.BAT;.CMD;.VBS;.VBE;.JS;.JSE;.WSF;.WSH;.MSC
p587
aV    2336 cmd.exe              0x00000000003bc2c0 PROCESSOR_ARCHITECTURE         AMD64
p588
aV    2336 cmd.exe              0x00000000003bc2c0 PROCESSOR_IDENTIFIER           Intel64 Family 6 Model 6 Stepping 3, GenuineIntel
p589
aV    2336 cmd.exe              0x00000000003bc2c0 PROCESSOR_LEVEL                6
p590
aV    2336 cmd.exe              0x00000000003bc2c0 PROCESSOR_REVISION             0603
p591
aV    2336 cmd.exe              0x00000000003bc2c0 ProgramData                    C:\u005cProgramData
p592
aV    2336 cmd.exe              0x00000000003bc2c0 ProgramFiles                   C:\u005cProgram Files
p593
aV    2336 cmd.exe              0x00000000003bc2c0 ProgramFiles(x86)              C:\u005cProgram Files (x86)
p594
aV    2336 cmd.exe              0x00000000003bc2c0 ProgramW6432                   C:\u005cProgram Files
p595
aV    2336 cmd.exe              0x00000000003bc2c0 PROMPT                         $P$G
p596
aV    2336 cmd.exe              0x00000000003bc2c0 PSModulePath                   C:\u005cWindows\u005csystem32\u005cWindowsPowerShell\u005cv1.0\u005cModules\u005c
p597
aV    2336 cmd.exe              0x00000000003bc2c0 PUBLIC                         C:\u005cUsers\u005cPublic
p598
aV    2336 cmd.exe              0x00000000003bc2c0 SESSIONNAME                    Console
p599
aV    2336 cmd.exe              0x00000000003bc2c0 SystemDrive                    C:
p600
aV    2336 cmd.exe              0x00000000003bc2c0 SystemRoot                     C:\u005cWindows
p601
aV    2336 cmd.exe              0x00000000003bc2c0 TEMP                           C:\u005cUsers\u005clophi\u005cAppData\u005cLocal\u005cTemp
p602
aV    2336 cmd.exe              0x00000000003bc2c0 TMP                            C:\u005cUsers\u005clophi\u005cAppData\u005cLocal\u005cTemp
p603
aV    2336 cmd.exe              0x00000000003bc2c0 USERDOMAIN                     lophi-PC
p604
aV    2336 cmd.exe              0x00000000003bc2c0 USERNAME                       lophi
p605
aV    2336 cmd.exe              0x00000000003bc2c0 USERPROFILE                    C:\u005cUsers\u005clophi
p606
aV    2336 cmd.exe              0x00000000003bc2c0 windir                         C:\u005cWindows
p607
aV    2344 conhost.exe          0x000000000019d7a0 CommonProgramFiles             C:\u005cProgram Files\u005cCommon Files
p608
aV    2344 conhost.exe          0x000000000019d7a0 CommonProgramFiles(x86)        C:\u005cProgram Files (x86)\u005cCommon Files
p609
aV    2344 conhost.exe          0x000000000019d7a0 CommonProgramW6432             C:\u005cProgram Files\u005cCommon Files
p610
aV    2344 conhost.exe          0x000000000019d7a0 ComSpec                        C:\u005cWindows\u005csystem32\u005ccmd.exe
p611
aV    2344 conhost.exe          0x000000000019d7a0 FP_NO_HOST_CHECK               NO
p612
aV    2344 conhost.exe          0x000000000019d7a0 NUMBER_OF_PROCESSORS           1
p613
aV    2344 conhost.exe          0x000000000019d7a0 OS                             Windows_NT
p614
aV    2344 conhost.exe          0x000000000019d7a0 Path                           C:\u005cWindows\u005csystem32;C:\u005cWindows;C:\u005cWindows\u005cSystem32\u005cWbem;C:\u005cWindows\u005cSystem32\u005cWindowsPowerShell\u005cv1.0\u005c;C:\u005cPython27
p615
aV    2344 conhost.exe          0x000000000019d7a0 PATHEXT                        .COM;.EXE;.BAT;.CMD;.VBS;.VBE;.JS;.JSE;.WSF;.WSH;.MSC
p616
aV    2344 conhost.exe          0x000000000019d7a0 PROCESSOR_ARCHITECTURE         AMD64
p617
aV    2344 conhost.exe          0x000000000019d7a0 PROCESSOR_IDENTIFIER           Intel64 Family 6 Model 6 Stepping 3, GenuineIntel
p618
aV    2344 conhost.exe          0x000000000019d7a0 PROCESSOR_LEVEL                6
p619
aV    2344 conhost.exe          0x000000000019d7a0 PROCESSOR_REVISION             0603
p620
aV    2344 conhost.exe          0x000000000019d7a0 ProgramFiles                   C:\u005cProgram Files
p621
aV    2344 conhost.exe          0x000000000019d7a0 ProgramFiles(x86)              C:\u005cProgram Files (x86)
p622
aV    2344 conhost.exe          0x000000000019d7a0 ProgramW6432                   C:\u005cProgram Files
p623
aV    2344 conhost.exe          0x000000000019d7a0 PSModulePath                   C:\u005cWindows\u005csystem32\u005cWindowsPowerShell\u005cv1.0\u005cModules\u005c
p624
aV    2344 conhost.exe          0x000000000019d7a0 SystemDrive                    C:
p625
aV    2344 conhost.exe          0x000000000019d7a0 SystemRoot                     C:\u005cWindows
p626
aV    2344 conhost.exe          0x000000000019d7a0 TEMP                           C:\u005cWindows\u005cTEMP
p627
aV    2344 conhost.exe          0x000000000019d7a0 TMP                            C:\u005cWindows\u005cTEMP
p628
aV    2344 conhost.exe          0x000000000019d7a0 USERNAME                       SYSTEM
p629
aV    2344 conhost.exe          0x000000000019d7a0 windir                         C:\u005cWindows
p630
asVAdded Entries
p631
(lp632
V    3044 slui.exe             0x0000000000221320 ALLUSERSPROFILE                C:\u005cProgramData
p633
aV    3044 slui.exe             0x0000000000221320 APPDATA                        C:\u005cUsers\u005clophi\u005cAppData\u005cRoaming
p634
aV    3044 slui.exe             0x0000000000221320 CommonProgramFiles             C:\u005cProgram Files\u005cCommon Files
p635
aV    3044 slui.exe             0x0000000000221320 CommonProgramFiles(x86)        C:\u005cProgram Files (x86)\u005cCommon Files
p636
aV    3044 slui.exe             0x0000000000221320 CommonProgramW6432             C:\u005cProgram Files\u005cCommon Files
p637
aV    3044 slui.exe             0x0000000000221320 COMPUTERNAME                   LOPHI-PC
p638
aV    3044 slui.exe             0x0000000000221320 ComSpec                        C:\u005cWindows\u005csystem32\u005ccmd.exe
p639
aV    3044 slui.exe             0x0000000000221320 FP_NO_HOST_CHECK               NO
p640
aV    3044 slui.exe             0x0000000000221320 HOMEDRIVE                      C:
p641
aV    3044 slui.exe             0x0000000000221320 HOMEPATH                       \u005cUsers\u005clophi
p642
aV    3044 slui.exe             0x0000000000221320 LOCALAPPDATA                   C:\u005cUsers\u005clophi\u005cAppData\u005cLocal
p643
aV    3044 slui.exe             0x0000000000221320 LOGONSERVER                    \u005c\u005cLOPHI-PC
p644
aV    3044 slui.exe             0x0000000000221320 NUMBER_OF_PROCESSORS           1
p645
aV    3044 slui.exe             0x0000000000221320 OS                             Windows_NT
p646
aV    3044 slui.exe             0x0000000000221320 Path                           C:\u005cWindows\u005csystem32;C:\u005cWindows;C:\u005cWindows\u005cSystem32\u005cWbem;C:\u005cWindows\u005cSystem32\u005cWindowsPowerShell\u005cv1.0\u005c;C:\u005cPython27
p647
aV    3044 slui.exe             0x0000000000221320 PATHEXT                        .COM;.EXE;.BAT;.CMD;.VBS;.VBE;.JS;.JSE;.WSF;.WSH;.MSC
p648
aV    3044 slui.exe             0x0000000000221320 PROCESSOR_ARCHITECTURE         AMD64
p649
aV    3044 slui.exe             0x0000000000221320 PROCESSOR_IDENTIFIER           Intel64 Family 6 Model 6 Stepping 3, GenuineIntel
p650
aV    3044 slui.exe             0x0000000000221320 PROCESSOR_LEVEL                6
p651
aV    3044 slui.exe             0x0000000000221320 PROCESSOR_REVISION             0603
p652
aV    3044 slui.exe             0x0000000000221320 ProgramData                    C:\u005cProgramData
p653
aV    3044 slui.exe             0x0000000000221320 ProgramFiles                   C:\u005cProgram Files
p654
aV    3044 slui.exe             0x0000000000221320 ProgramFiles(x86)              C:\u005cProgram Files (x86)
p655
aV    3044 slui.exe             0x0000000000221320 ProgramW6432                   C:\u005cProgram Files
p656
aV    3044 slui.exe             0x0000000000221320 PSModulePath                   C:\u005cWindows\u005csystem32\u005cWindowsPowerShell\u005cv1.0\u005cModules\u005c
p657
aV    3044 slui.exe             0x0000000000221320 PUBLIC                         C:\u005cUsers\u005cPublic
p658
aV    3044 slui.exe             0x0000000000221320 SystemDrive                    C:
p659
aV    3044 slui.exe             0x0000000000221320 SystemRoot                     C:\u005cWindows
p660
aV    3044 slui.exe             0x0000000000221320 TEMP                           C:\u005cUsers\u005clophi\u005cAppData\u005cLocal\u005cTemp
p661
aV    3044 slui.exe             0x0000000000221320 TMP                            C:\u005cUsers\u005clophi\u005cAppData\u005cLocal\u005cTemp
p662
aV    3044 slui.exe             0x0000000000221320 USERDOMAIN                     lophi-PC
p663
aV    3044 slui.exe             0x0000000000221320 USERNAME                       lophi
p664
aV    3044 slui.exe             0x0000000000221320 USERPROFILE                    C:\u005cUsers\u005clophi
p665
aV    3044 slui.exe             0x0000000000221320 windir                         C:\u005cWindows
p666
aV    1536 WmiPrvSE.exe         0x00000000003b1320 ALLUSERSPROFILE                C:\u005cProgramData
p667
aV    1536 WmiPrvSE.exe         0x00000000003b1320 APPDATA                        C:\u005cWindows\u005csystem32\u005cconfig\u005csystemprofile\u005cAppData\u005cRoaming
p668
aV    1536 WmiPrvSE.exe         0x00000000003b1320 CommonProgramFiles             C:\u005cProgram Files\u005cCommon Files
p669
aV    1536 WmiPrvSE.exe         0x00000000003b1320 CommonProgramFiles(x86)        C:\u005cProgram Files (x86)\u005cCommon Files
p670
aV    1536 WmiPrvSE.exe         0x00000000003b1320 CommonProgramW6432             C:\u005cProgram Files\u005cCommon Files
p671
aV    1536 WmiPrvSE.exe         0x00000000003b1320 COMPUTERNAME                   LOPHI-PC
p672
aV    1536 WmiPrvSE.exe         0x00000000003b1320 ComSpec                        C:\u005cWindows\u005csystem32\u005ccmd.exe
p673
aV    1536 WmiPrvSE.exe         0x00000000003b1320 FP_NO_HOST_CHECK               NO
p674
aV    1536 WmiPrvSE.exe         0x00000000003b1320 LOCALAPPDATA                   C:\u005cWindows\u005csystem32\u005cconfig\u005csystemprofile\u005cAppData\u005cLocal
p675
aV    1536 WmiPrvSE.exe         0x00000000003b1320 NUMBER_OF_PROCESSORS           1
p676
aV    1536 WmiPrvSE.exe         0x00000000003b1320 OS                             Windows_NT
p677
aV    1536 WmiPrvSE.exe         0x00000000003b1320 Path                           C:\u005cWindows\u005csystem32;C:\u005cWindows;C:\u005cWindows\u005cSystem32\u005cWbem;C:\u005cWindows\u005cSystem32\u005cWindowsPowerShell\u005cv1.0\u005c;C:\u005cPython27
p678
aV    1536 WmiPrvSE.exe         0x00000000003b1320 PATHEXT                        .COM;.EXE;.BAT;.CMD;.VBS;.VBE;.JS;.JSE;.WSF;.WSH;.MSC
p679
aV    1536 WmiPrvSE.exe         0x00000000003b1320 PROCESSOR_ARCHITECTURE         AMD64
p680
aV    1536 WmiPrvSE.exe         0x00000000003b1320 PROCESSOR_IDENTIFIER           Intel64 Family 6 Model 6 Stepping 3, GenuineIntel
p681
aV    1536 WmiPrvSE.exe         0x00000000003b1320 PROCESSOR_LEVEL                6
p682
aV    1536 WmiPrvSE.exe         0x00000000003b1320 PROCESSOR_REVISION             0603
p683
aV    1536 WmiPrvSE.exe         0x00000000003b1320 ProgramData                    C:\u005cProgramData
p684
aV    1536 WmiPrvSE.exe         0x00000000003b1320 ProgramFiles                   C:\u005cProgram Files
p685
aV    1536 WmiPrvSE.exe         0x00000000003b1320 ProgramFiles(x86)              C:\u005cProgram Files (x86)
p686
aV    1536 WmiPrvSE.exe         0x00000000003b1320 ProgramW6432                   C:\u005cProgram Files
p687
aV    1536 WmiPrvSE.exe         0x00000000003b1320 PSModulePath                   C:\u005cWindows\u005csystem32\u005cWindowsPowerShell\u005cv1.0\u005cModules\u005c
p688
aV    1536 WmiPrvSE.exe         0x00000000003b1320 PUBLIC                         C:\u005cUsers\u005cPublic
p689
aV    1536 WmiPrvSE.exe         0x00000000003b1320 SystemDrive                    C:
p690
aV    1536 WmiPrvSE.exe         0x00000000003b1320 SystemRoot                     C:\u005cWindows
p691
aV    1536 WmiPrvSE.exe         0x00000000003b1320 TEMP                           C:\u005cWindows\u005cTEMP
p692
aV    1536 WmiPrvSE.exe         0x00000000003b1320 TMP                            C:\u005cWindows\u005cTEMP
p693
aV    1536 WmiPrvSE.exe         0x00000000003b1320 USERDOMAIN                     WORKGROUP
p694
aV    1536 WmiPrvSE.exe         0x00000000003b1320 USERNAME                       LOPHI-PC$
p695
aV    1536 WmiPrvSE.exe         0x00000000003b1320 USERPROFILE                    C:\u005cWindows\u005csystem32\u005cconfig\u005csystemprofile
p696
aV    1536 WmiPrvSE.exe         0x00000000003b1320 windir                         C:\u005cWindows
p697
assVpsxview
p698
(dp699
VRemoved Entries
p700
(lp701
V0x000000003e76e510 SearchProtocol          532 True   True   True     True   True  True    False   
p702
aV0x000000003e7098e0 SearchIndexer.         1356 True   True   True     True   True  True    False   
p703
aV0x000000003e6ce060 cmd.exe                2336 True   True   True     True   True  True    True    
p704
aV0x000000003e778b30 SearchFilterHo          844 True   True   True     True   True  True    True    
p705
aV0x000000003e9aab30 svchost.exe            1552 True   True   True     True   True  True    False   
p706
aV0x000000003e86fb30 spoolsv.exe            1164 True   True   True     True   True  True    False   
p707
aV0x000000003eb11060 svchost.exe             704 True   True   True     True   True  True    False   
p708
aV0x000000003e93c060 taskeng.exe            1380 True   True   True     True   True  True    False   
p709
aV0x000000003e6d7330 conhost.exe            2344 True   True   True     True   True  True    True    
p710
aV0x000000003eb46b30 audiodg.exe             924 True   True   True     True   True  True    False   
p711
aV0x000000003e6aa630 GoogleUpdate.e         1280 True   True   True     True   True  True    False   
p712
aV0x000000003ea87730 svchost.exe             588 True   True   True     True   True  True    False   
p713
aV0x000000003ff63060 wininit.exe             372 True   True   True     True   True  True    False   
p714
aV0x000000003eb78210 svchost.exe            1004 True   True   True     True   True  True    False   
p715
aV0x000000003e95bb30 reader_sl.exe          1364 True   True   True     True   True  True    True    
p716
aV0x000000003e89e670 svchost.exe            1224 True   True   True     True   True  True    False   
p717
aV0x000000003ebbca30 svchost.exe             856 True   True   True     True   True  True    False   
p718
aV0x000000003eb04060 svchost.exe             808 True   True   True     True   True  True    False   
p719
aV0x000000003e950b30 svchost.exe            1904 True   True   True     True   True  True    False   
p720
aV0x000000003ec98b30 csrss.exe               324 True   True   True     True   False True    False   
p721
aV0x000000003fef4060 svchost.exe            2804 True   True   True     False  False True    False   
p722
aV0x000000003fe21060 sppsvc.exe             2776 True   True   True     False  False True    False   
p723
asVAdded Entries
p724
(lp725
V0x000000003e7098e0 SearchIndexer.         1356 True   True   True     True   True  True    True    
p726
aV0x000000003ebbca30 svchost.exe             856 True   True   True     True   True  True    True    
p727
aV0x000000003e9aab30 svchost.exe            1552 True   True   True     True   True  True    True    
p728
aV0x000000003e86fb30 spoolsv.exe            1164 True   True   True     True   True  True    True    
p729
aV0x000000003fef4060 svchost.exe            2804 True   True   True     True   True  True    False   
p730
aV0x000000003eb11060 svchost.exe             704 True   True   True     True   True  True    True    
p731
aV0x000000003fe21060 sppsvc.exe             2776 True   True   True     True   True  True    True    
p732
aV0x000000003eb46b30 audiodg.exe             924 True   True   True     True   True  True    True    
p733
aV0x000000003e6aa630 GoogleUpdate.e         1280 True   True   True     True   True  True    True    
p734
aV0x000000003e93c060 taskeng.exe            1380 True   True   True     True   True  True    True    
p735
aV0x000000003ea87730 svchost.exe             588 True   True   True     True   True  True    True    
p736
aV0x000000003ff63060 wininit.exe             372 True   True   True     True   True  True    True    
p737
aV0x000000003eb78210 svchost.exe            1004 True   True   True     True   True  True    True    
p738
aV0x000000003fe3f060 slui.exe               3044 True   True   True     True   True  True    True    
p739
aV0x000000003e89e670 svchost.exe            1224 True   True   True     True   True  True    True    
p740
aV0x000000003fe22560 WmiPrvSE.exe           1536 True   True   True     True   True  True    True    
p741
aV0x000000003eb04060 svchost.exe             808 True   True   True     True   True  True    True    
p742
aV0x000000003e950b30 svchost.exe            1904 True   True   True     True   True  True    True    
p743
aV0x000000003ec98b30 csrss.exe               324 True   True   True     True   False True    True    
p744
assVpsscan
p745
(dp746
VRemoved Entries
p747
(lp748
V0x0000fa800235bb30 reader_sl.exe      1364   1304 0x000000000fc2f000 2015-08-15 20:12:07 UTC+0000                                 
p749
aV0x0000fa80024ce060 cmd.exe            2336   1084 0x000000003c6f0000 2015-08-15 20:13:21 UTC+0000                                 
p750
aV0x0000fa80024d7330 conhost.exe        2344    384 0x000000003ccb9000 2015-08-15 20:13:21 UTC+0000                                 
p751
aV0x0000fa800256e510 SearchProtocol      532   1356 0x000000000a1e3000 2015-08-15 20:12:13 UTC+0000                                 
p752
aV0x0000fa8002578b30 SearchFilterHo      844   1356 0x0000000009fad000 2015-08-15 20:12:13 UTC+0000                                 
p753
asVAdded Entries
p754
(lp755
V0x0000fa8000dc0060 slui.exe           3044    588 0x00000000346c7000 2015-08-15 20:14:56 UTC+0000                                 
p756
aV0x0000fa8000de3560 WmiPrvSE.exe       1536    588 0x0000000031c03000 2015-08-15 20:16:08 UTC+0000                                 
p757
assVdriverirp
p758
(dp759
sVssdt
p760
(dp761
VRemoved Entries
p762
(lp763
sVAdded Entries
p764
(lp765
ss.