(dp0
Vmodscan
p1
(dp2
VRemoved Entries
p3
(lp4
V0x0000fa80021f3990 spsys.sys            0xfffff88003986000            0x71000 
p5
asVAdded Entries
p6
(lp7
V0x0000fa80021f3990 spsys.sys            0xfffff88003986000            0x71000 \u005cSystemRoot\u005csystem32\u005cdrivers\u005cspsys.sys
p8
assVnetscan
p9
(dp10
VRemoved Entries
p11
(lp12
V0x3ec8dcb0 UDPv6    fe80::55d3:8f9f:a850:b8f4:546  *:*                                   704      svchost.exe    2015-08-15 20:12:17 UTC+0000
p13
aV0x3fe506c0 UDPv4    0.0.0.0:58459                  *:*                                   528      svchost.exe    2015-08-15 20:14:14 UTC+0000
p14
asVAdded Entries
p15
(lp16
V0x3fdf52c0 UDPv4    0.0.0.0:0                      *:*                                   860      svchost.exe    2015-08-15 20:18:51 UTC+0000
p17
aV0x3fdf52c0 UDPv6    :::0                           *:*                                   860      svchost.exe    2015-08-15 20:18:51 UTC+0000
p18
assVldrmodules
p19
(dp20
VRemoved Entries
p21
(lp22
V     324 csrss.exe            0x000007fefd110000 True   True   True  \u005cWindows\u005cSystem32\u005ccsrsrv.dll
p23
aV     324 csrss.exe            0x000007fefd0a0000 True   True   True  \u005cWindows\u005cSystem32\u005csxssrv.dll
p24
aV     324 csrss.exe            0x000007fefd0b0000 True   True   True  \u005cWindows\u005cSystem32\u005cwinsrv.dll
p25
aV     324 csrss.exe            0x000007fefd0f0000 True   True   True  \u005cWindows\u005cSystem32\u005cbasesrv.dll
p26
aV     384 csrss.exe            0x000007fefd0a0000 True   True   True  \u005cWindows\u005cSystem32\u005csxssrv.dll
p27
aV     384 csrss.exe            0x000007fefd0b0000 True   True   True  \u005cWindows\u005cSystem32\u005cwinsrv.dll
p28
aV     384 csrss.exe            0x000007fefd0f0000 True   True   True  \u005cWindows\u005cSystem32\u005cbasesrv.dll
p29
aV     384 csrss.exe            0x000007fefd110000 True   True   True  \u005cWindows\u005cSystem32\u005ccsrsrv.dll
p30
aV     424 winlogon.exe         0x000007fefab70000 True   True   True  \u005cWindows\u005cSystem32\u005cUXInit.dll
p31
aV     468 services.exe         0x000007fefce50000 True   True   True  \u005cWindows\u005cSystem32\u005cscesrv.dll
p32
aV     468 services.exe         0x000007fefced0000 True   True   True  \u005cWindows\u005cSystem32\u005cscext.dll
p33
aV     476 lsass.exe            0x000007fefcb40000 True   True   True  \u005cWindows\u005cSystem32\u005ccngaudit.dll
p34
aV     476 lsass.exe            0x000007fefc7a0000 True   True   True  \u005cWindows\u005cSystem32\u005cnetlogon.dll
p35
aV     476 lsass.exe            0x000007fefc5b0000 True   True   True  \u005cWindows\u005cSystem32\u005cpku2u.dll
p36
aV     476 lsass.exe            0x000007fefca00000 True   True   True  \u005cWindows\u005cSystem32\u005cnegoexts.dll
p37
aV     476 lsass.exe            0x000007fefcbe0000 True   True   True  \u005cWindows\u005cSystem32\u005csamsrv.dll
p38
aV     476 lsass.exe            0x000007fefc540000 True   True   True  \u005cWindows\u005cSystem32\u005cefslsaext.dll
p39
aV     476 lsass.exe            0x000007fefc670000 True   True   True  \u005cWindows\u005cSystem32\u005cwdigest.dll
p40
aV     476 lsass.exe            0x000007fefc4a0000 True   True   True  \u005cWindows\u005cSystem32\u005cscecli.dll
p41
aV     476 lsass.exe            0x000007fefc940000 True   True   True  \u005cWindows\u005cSystem32\u005ckerberos.dll
p42
aV     476 lsass.exe            0x000007fefc600000 True   True   True  \u005cWindows\u005cSystem32\u005cTSpkg.dll
p43
aV     476 lsass.exe            0x000007fefce10000 True   True   True  \u005cWindows\u005cSystem32\u005csspisrv.dll
p44
aV     484 lsm.exe              0x00000000ff400000 True   False  True  \u005cWindows\u005cSystem32\u005clsm.exe
p45
aV     588 svchost.exe          0x000007fef8220000 True   True   True  \u005cWindows\u005cSystem32\u005cwbem\u005cWmiDcPrv.dll
p46
aV     588 svchost.exe          0x000007fefc430000 True   True   True  \u005cWindows\u005cSystem32\u005cumpnpmgr.dll
p47
aV     588 svchost.exe          0x000007fefc380000 True   True   True  \u005cWindows\u005cSystem32\u005cumpo.dll
p48
aV     704 svchost.exe          0x0000000074e50000 False  False  False \u005cWindows\u005cSystem32\u005cwbem\u005cWinMgmtR.dll
p49
aV     808 svchost.exe          0x0000000000c80000 False  False  False \u005cWindows\u005cSystem32\u005cen-US\u005csysmain.dll.mui
p50
aV     808 svchost.exe          0x000007fef7500000 True   True   True  \u005cWindows\u005cSystem32\u005cApphlpdm.dll
p51
aV     808 svchost.exe          0x000007fef7be0000 True   True   True  \u005cWindows\u005cSystem32\u005cPortableDeviceConnectApi.dll
p52
aV     860 svchost.exe          0x000007fefab80000 True   True   True  \u005cWindows\u005cSystem32\u005ces.dll
p53
aV     860 svchost.exe          0x000007fef7c00000 True   True   True  \u005cWindows\u005cSystem32\u005cmprapi.dll
p54
aV     860 svchost.exe          0x000007fef8060000 True   True   True  \u005cWindows\u005cSystem32\u005cnetcfgx.dll
p55
aV     860 svchost.exe          0x000007fef9dd0000 True   True   True  \u005cWindows\u005cSystem32\u005cactxprxy.dll
p56
aV     860 svchost.exe          0x000007fef7c40000 True   True   True  \u005cWindows\u005cSystem32\u005crascfg.dll
p57
aV     860 svchost.exe          0x000007fef7b10000 True   True   True  \u005cWindows\u005cSystem32\u005ctcpipcfg.dll
p58
aV     860 svchost.exe          0x000007fef80f0000 True   True   True  \u005cWindows\u005cSystem32\u005cwbem\u005cwbemprox.dll
p59
aV     860 svchost.exe          0x000007fef7e10000 True   True   True  \u005cWindows\u005cSystem32\u005chnetcfg.dll
p60
aV     860 svchost.exe          0x000007fef7c60000 True   True   True  \u005cWindows\u005cSystem32\u005cndiscapCfg.dll
p61
aV     924 audiodg.exe          0x00000000001b0000 False  False  False \u005cWindows\u005cSystem32\u005cen-US\u005caudiodg.exe.mui
p62
aV     924 audiodg.exe          0x000007fef9090000 True   True   True  \u005cWindows\u005cSystem32\u005cAUDIOKSE.dll
p63
aV     528 svchost.exe          0x000007fef88b0000 True   True   True  \u005cWindows\u005cSystem32\u005cncsi.dll
p64
aV     528 svchost.exe          0x000007fef88f0000 True   True   True  \u005cWindows\u005cSystem32\u005cnlasvc.dll
p65
aV    1080 explorer.exe         0x0000000003b80000 False  False  False \u005cWindows\u005cSystem32\u005cen-US\u005cwdmaud.drv.mui
p66
aV    1080 explorer.exe         0x0000000003c10000 False  False  False \u005cWindows\u005cSystem32\u005cen-US\u005cMMDevAPI.dll.mui
p67
aV    1080 explorer.exe         0x0000000003df0000 False  False  False \u005cWindows\u005cSystem32\u005cen-US\u005cbthprops.cpl.mui
p68
aV    1220 svchost.exe          0x000007fef8c30000 True   True   True  \u005cWindows\u005cSystem32\u005cwfapigp.dll
p69
aV    1220 svchost.exe          0x000007fef7510000 True   True   True  \u005cWindows\u005cSystem32\u005cradardt.dll
p70
aV    1360 reader_sl.exe        0x0000000073ac0000 True   True   True  \u005cWindows\u005cSystem32\u005cwow64.dll
p71
aV    1360 reader_sl.exe        0x0000000000400000 True   False  True  \u005cProgram Files (x86)\u005cAdobe\u005cReader 9.0\u005cReader\u005creader_sl.exe
p72
aV    1360 reader_sl.exe        0x0000000077130000 True   True   True  \u005cWindows\u005cSystem32\u005cntdll.dll
p73
aV    1360 reader_sl.exe        0x0000000073a30000 False  False  False \u005cWindows\u005cSysWOW64\u005cdwmapi.dll
p74
aV    1360 reader_sl.exe        0x0000000073570000 False  False  False \u005cWindows\u005cwinsxs\u005cx86_microsoft.vc80.crt_1fc8b3b9a1e18e3b_8.0.50727.4927_none_d08a205e442db5b5\u005cmsvcr80.dll
p75
aV    1360 reader_sl.exe        0x0000000075380000 False  False  False \u005cWindows\u005cSysWOW64\u005crpcrt4.dll
p76
aV    1360 reader_sl.exe        0x0000000077310000 False  False  False \u005cWindows\u005cSysWOW64\u005cntdll.dll
p77
aV    1360 reader_sl.exe        0x0000000073610000 False  False  False \u005cWindows\u005cwinsxs\u005cx86_microsoft.vc80.crt_1fc8b3b9a1e18e3b_8.0.50727.4927_none_d08a205e442db5b5\u005cmsvcp80.dll
p78
aV    1360 reader_sl.exe        0x0000000073a60000 True   True   True  \u005cWindows\u005cSystem32\u005cwow64win.dll
p79
aV    1360 reader_sl.exe        0x0000000076840000 False  False  False \u005cWindows\u005cSysWOW64\u005cmsctf.dll
p80
aV    1360 reader_sl.exe        0x0000000073a50000 True   True   True  \u005cWindows\u005cSystem32\u005cwow64cpu.dll
p81
aV    1360 reader_sl.exe        0x0000000074e70000 False  False  False \u005cWindows\u005cSysWOW64\u005ccryptbase.dll
p82
aV    1360 reader_sl.exe        0x00000000764c0000 False  False  False \u005cWindows\u005cSysWOW64\u005cKernelBase.dll
p83
aV    1360 reader_sl.exe        0x0000000076270000 False  False  False \u005cWindows\u005cSysWOW64\u005cgdi32.dll
p84
aV    1360 reader_sl.exe        0x0000000076710000 False  False  False \u005cWindows\u005cSysWOW64\u005cuser32.dll
p85
aV    1360 reader_sl.exe        0x0000000076e70000 False  False  False \u005cWindows\u005cSysWOW64\u005cusp10.dll
p86
aV    1360 reader_sl.exe        0x0000000076940000 False  False  False \u005cWindows\u005cSysWOW64\u005cshlwapi.dll
p87
aV    1360 reader_sl.exe        0x0000000076160000 False  False  False \u005cWindows\u005cSysWOW64\u005cmsvcrt.dll
p88
aV    1360 reader_sl.exe        0x0000000074f90000 False  False  False \u005cWindows\u005cSysWOW64\u005cimm32.dll
p89
aV    1360 reader_sl.exe        0x0000000076d70000 False  False  False \u005cWindows\u005cSysWOW64\u005ckernel32.dll
p90
aV    1360 reader_sl.exe        0x0000000073830000 False  False  False \u005cWindows\u005cSysWOW64\u005cuxtheme.dll
p91
aV    1360 reader_sl.exe        0x0000000075470000 False  False  False \u005cWindows\u005cSysWOW64\u005clpk.dll
p92
aV    1360 reader_sl.exe        0x0000000074e80000 False  False  False \u005cWindows\u005cSysWOW64\u005csspicli.dll
p93
aV    1360 reader_sl.exe        0x00000000752e0000 False  False  False \u005cWindows\u005cSysWOW64\u005cadvapi32.dll
p94
aV    1360 reader_sl.exe        0x0000000076300000 False  False  False \u005cWindows\u005cSysWOW64\u005csechost.dll
p95
aV    1360 reader_sl.exe        0x0000000075510000 False  False  False \u005cWindows\u005cSysWOW64\u005cshell32.dll
p96
aV    1384 AdobeARM.exe         0x00000000739a0000 False  False  False \u005cWindows\u005cSysWOW64\u005coledlg.dll
p97
aV    1384 AdobeARM.exe         0x0000000074aa0000 False  False  False \u005cWindows\u005cSysWOW64\u005cqmgrprxy.dll
p98
aV    1536 svchost.exe          0x000007fef7e00000 True   True   True  \u005cWindows\u005cSystem32\u005chttpapi.dll
p99
aV    1904 svchost.exe          0x000007fef76d0000 True   True   True  \u005cWindows\u005cSystem32\u005cFwRemoteSvr.dll
p100
aV     268 SearchFilterHo       0x0000000076f10000 True   True   True  \u005cWindows\u005cSystem32\u005cuser32.dll
p101
aV     268 SearchFilterHo       0x0000000077130000 True   True   True  \u005cWindows\u005cSystem32\u005cntdll.dll
p102
aV     268 SearchFilterHo       0x000007fef6340000 True   True   True  \u005cWindows\u005cSystem32\u005cmsshooks.dll
p103
aV     268 SearchFilterHo       0x000007fefed60000 True   True   True  \u005cWindows\u005cSystem32\u005crpcrt4.dll
p104
aV     268 SearchFilterHo       0x000007fefcf80000 True   True   True  \u005cWindows\u005cSystem32\u005ccryptbase.dll
p105
aV     268 SearchFilterHo       0x00000000ff1b0000 True   False  True  \u005cWindows\u005cSystem32\u005cSearchFilterHost.exe
p106
aV     268 SearchFilterHo       0x000007fefdbc0000 True   True   True  \u005cWindows\u005cSystem32\u005cshlwapi.dll
p107
aV     268 SearchFilterHo       0x000007fefc920000 True   True   True  \u005cWindows\u005cSystem32\u005ccryptsp.dll
p108
aV     268 SearchFilterHo       0x000007fefdc40000 True   True   True  \u005cWindows\u005cSystem32\u005cgdi32.dll
p109
aV     268 SearchFilterHo       0x000007fefda50000 True   True   True  \u005cWindows\u005cSystem32\u005clpk.dll
p110
aV     268 SearchFilterHo       0x000007fefee90000 True   True   True  \u005cWindows\u005cSystem32\u005csechost.dll
p111
aV     268 SearchFilterHo       0x000007fefd2b0000 True   True   True  \u005cWindows\u005cSystem32\u005cKernelBase.dll
p112
aV     268 SearchFilterHo       0x000007feff2d0000 True   True   True  \u005cWindows\u005cSystem32\u005cmsvcrt.dll
p113
aV     268 SearchFilterHo       0x000007feff0e0000 True   True   True  \u005cWindows\u005cSystem32\u005coleaut32.dll
p114
aV     268 SearchFilterHo       0x000007fef6160000 True   True   True  \u005cWindows\u005cMicrosoft.NET\u005cFramework64\u005cv4.0.30319\u005cmscoreei.dll
p115
aV     268 SearchFilterHo       0x000007feff370000 True   True   True  \u005cWindows\u005cSystem32\u005cclbcatq.dll
p116
aV     268 SearchFilterHo       0x000007feff410000 True   True   True  \u005cWindows\u005cSystem32\u005cimm32.dll
p117
aV     268 SearchFilterHo       0x000007feff1c0000 True   True   True  \u005cWindows\u005cSystem32\u005cmsctf.dll
p118
aV     268 SearchFilterHo       0x000007fefd5e0000 True   True   True  \u005cWindows\u005cSystem32\u005cusp10.dll
p119
aV     268 SearchFilterHo       0x000007fef67f0000 True   True   True  \u005cWindows\u005cSystem32\u005cmssprxy.dll
p120
aV     268 SearchFilterHo       0x000007fef6200000 True   True   True  \u005cWindows\u005cSystem32\u005cmscoree.dll
p121
aV     268 SearchFilterHo       0x0000000077010000 True   True   True  \u005cWindows\u005cSystem32\u005ckernel32.dll
p122
aV     268 SearchFilterHo       0x000007fef6d10000 True   True   True  \u005cWindows\u005cSystem32\u005ctquery.dll
p123
aV     268 SearchFilterHo       0x000007fefc620000 True   True   True  \u005cWindows\u005cSystem32\u005crsaenh.dll
p124
aV     268 SearchFilterHo       0x000007fefd070000 True   True   True  \u005cWindows\u005cSystem32\u005cRpcRtRemote.dll
p125
aV     268 SearchFilterHo       0x000007fefdae0000 True   True   True  \u005cWindows\u005cSystem32\u005cadvapi32.dll
p126
aV     268 SearchFilterHo       0x000007fefd700000 True   True   True  \u005cWindows\u005cSystem32\u005cole32.dll
p127
aV    2052 SearchProtocol       0x0000000076f10000 True   True   True  \u005cWindows\u005cSystem32\u005cuser32.dll
p128
aV    2052 SearchProtocol       0x0000000077130000 True   True   True  \u005cWindows\u005cSystem32\u005cntdll.dll
p129
aV    2052 SearchProtocol       0x000007fefbb40000 True   True   True  \u005cWindows\u005cwinsxs\u005camd64_microsoft.windows.common-controls_6595b64144ccf1df_6.0.7600.16385_none_fa645303170382f6\u005ccomctl32.dll
p130
aV    2052 SearchProtocol       0x000007fefcb10000 True   True   True  \u005cWindows\u005cSystem32\u005cauthz.dll
p131
aV    2052 SearchProtocol       0x000007fefcf80000 True   True   True  \u005cWindows\u005cSystem32\u005ccryptbase.dll
p132
aV    2052 SearchProtocol       0x000007fefdc40000 True   True   True  \u005cWindows\u005cSystem32\u005cgdi32.dll
p133
aV    2052 SearchProtocol       0x000007fefdbc0000 True   True   True  \u005cWindows\u005cSystem32\u005cshlwapi.dll
p134
aV    2052 SearchProtocol       0x000007feff1c0000 True   True   True  \u005cWindows\u005cSystem32\u005cmsctf.dll
p135
aV    2052 SearchProtocol       0x000007fefd400000 True   True   True  \u005cWindows\u005cSystem32\u005ccfgmgr32.dll
p136
aV    2052 SearchProtocol       0x000007fef6340000 True   True   True  \u005cWindows\u005cSystem32\u005cmsshooks.dll
p137
aV    2052 SearchProtocol       0x000007fefd440000 True   True   True  \u005cWindows\u005cSystem32\u005cdevobj.dll
p138
aV    2052 SearchProtocol       0x000007fefda50000 True   True   True  \u005cWindows\u005cSystem32\u005clpk.dll
p139
aV    2052 SearchProtocol       0x000007fefee90000 True   True   True  \u005cWindows\u005cSystem32\u005csechost.dll
p140
aV    2052 SearchProtocol       0x000007fefd2b0000 True   True   True  \u005cWindows\u005cSystem32\u005cKernelBase.dll
p141
aV    2052 SearchProtocol       0x000007fef58c0000 True   True   True  \u005cWindows\u005cSystem32\u005cmssph.dll
p142
aV    2052 SearchProtocol       0x000007feff2d0000 True   True   True  \u005cWindows\u005cSystem32\u005cmsvcrt.dll
p143
aV    2052 SearchProtocol       0x000007feff0e0000 True   True   True  \u005cWindows\u005cSystem32\u005coleaut32.dll
p144
aV    2052 SearchProtocol       0x000007fefc920000 True   True   True  \u005cWindows\u005cSystem32\u005ccryptsp.dll
p145
aV    2052 SearchProtocol       0x00000000ff560000 True   False  True  \u005cWindows\u005cSystem32\u005cSearchProtocolHost.exe
p146
aV    2052 SearchProtocol       0x000007feff370000 True   True   True  \u005cWindows\u005cSystem32\u005cclbcatq.dll
p147
aV    2052 SearchProtocol       0x000007feff410000 True   True   True  \u005cWindows\u005cSystem32\u005cimm32.dll
p148
aV    2052 SearchProtocol       0x000007fefd6b0000 True   True   True  \u005cWindows\u005cSystem32\u005cWldap32.dll
p149
aV    2052 SearchProtocol       0x000007fefafb0000 True   True   True  \u005cWindows\u005cSystem32\u005cntmarta.dll
p150
aV    2052 SearchProtocol       0x000007fefb9c0000 True   True   True  \u005cWindows\u005cSystem32\u005cpropsys.dll
p151
aV    2052 SearchProtocol       0x000007fefed60000 True   True   True  \u005cWindows\u005cSystem32\u005crpcrt4.dll
p152
aV    2052 SearchProtocol       0x000007fefd5e0000 True   True   True  \u005cWindows\u005cSystem32\u005cusp10.dll
p153
aV    2052 SearchProtocol       0x000007fef67f0000 True   True   True  \u005cWindows\u005cSystem32\u005cmssprxy.dll
p154
aV    2052 SearchProtocol       0x0000000077010000 True   True   True  \u005cWindows\u005cSystem32\u005ckernel32.dll
p155
aV    2052 SearchProtocol       0x000007fefd070000 True   True   True  \u005cWindows\u005cSystem32\u005cRpcRtRemote.dll
p156
aV    2052 SearchProtocol       0x000007fefc620000 True   True   True  \u005cWindows\u005cSystem32\u005crsaenh.dll
p157
aV    2052 SearchProtocol       0x000007fef6320000 True   True   True  \u005cWindows\u005cSystem32\u005cmapi32.dll
p158
aV    2052 SearchProtocol       0x000007fef6850000 True   True   True  \u005cWindows\u005cSystem32\u005cmsidle.dll
p159
aV    2052 SearchProtocol       0x000007fefeeb0000 True   True   True  \u005cWindows\u005cSystem32\u005csetupapi.dll
p160
aV    2052 SearchProtocol       0x000007fefdcb0000 True   True   True  \u005cWindows\u005cSystem32\u005cshell32.dll
p161
aV    2052 SearchProtocol       0x000007fefdae0000 True   True   True  \u005cWindows\u005cSystem32\u005cadvapi32.dll
p162
aV    2052 SearchProtocol       0x000007fefd700000 True   True   True  \u005cWindows\u005cSystem32\u005cole32.dll
p163
aV    2052 SearchProtocol       0x000007fef6d10000 True   True   True  \u005cWindows\u005cSystem32\u005ctquery.dll
p164
aV    2304 cmd.exe              0x00000000001f0000 False  False  False \u005cWindows\u005cSystem32\u005cen-US\u005ccmd.exe.mui
p165
aV    2304 cmd.exe              0x000000004abd0000 True   False  True  \u005cWindows\u005cSystem32\u005ccmd.exe
p166
aV    2304 cmd.exe              0x000007fefdc40000 True   True   True  \u005cWindows\u005cSystem32\u005cgdi32.dll
p167
aV    2304 cmd.exe              0x0000000077130000 True   True   True  \u005cWindows\u005cSystem32\u005cntdll.dll
p168
aV    2304 cmd.exe              0x000007feff410000 True   True   True  \u005cWindows\u005cSystem32\u005cimm32.dll
p169
aV    2304 cmd.exe              0x000007fefcf20000 True   True   True  \u005cWindows\u005cSystem32\u005capphelp.dll
p170
aV    2304 cmd.exe              0x000007fefd2b0000 True   True   True  \u005cWindows\u005cSystem32\u005cKernelBase.dll
p171
aV    2304 cmd.exe              0x000007feff1c0000 True   True   True  \u005cWindows\u005cSystem32\u005cmsctf.dll
p172
aV    2304 cmd.exe              0x000007fef9520000 True   True   True  \u005cWindows\u005cSystem32\u005cwinbrand.dll
p173
aV    2304 cmd.exe              0x000007fefd5e0000 True   True   True  \u005cWindows\u005cSystem32\u005cusp10.dll
p174
aV    2304 cmd.exe              0x000007fefda50000 True   True   True  \u005cWindows\u005cSystem32\u005clpk.dll
p175
aV    2304 cmd.exe              0x0000000076f10000 True   True   True  \u005cWindows\u005cSystem32\u005cuser32.dll
p176
aV    2304 cmd.exe              0x0000000077010000 True   True   True  \u005cWindows\u005cSystem32\u005ckernel32.dll
p177
aV    2304 cmd.exe              0x000007feff2d0000 True   True   True  \u005cWindows\u005cSystem32\u005cmsvcrt.dll
p178
aV    2312 conhost.exe          0x00000000000b0000 False  False  False \u005cWindows\u005cSystem32\u005cen-US\u005cconhost.exe.mui
p179
aV    2312 conhost.exe          0x0000000076f10000 True   True   True  \u005cWindows\u005cSystem32\u005cuser32.dll
p180
aV    2312 conhost.exe          0x000007fefb530000 True   True   True  \u005cWindows\u005cSystem32\u005cdwmapi.dll
p181
aV    2312 conhost.exe          0x0000000077130000 True   True   True  \u005cWindows\u005cSystem32\u005cntdll.dll
p182
aV    2312 conhost.exe          0x000007fefcf80000 True   True   True  \u005cWindows\u005cSystem32\u005ccryptbase.dll
p183
aV    2312 conhost.exe          0x000007fefdbc0000 True   True   True  \u005cWindows\u005cSystem32\u005cshlwapi.dll
p184
aV    2312 conhost.exe          0x00000000ff5f0000 True   False  True  \u005cWindows\u005cSystem32\u005cconhost.exe
p185
aV    2312 conhost.exe          0x000007fefbb40000 True   True   True  \u005cWindows\u005cwinsxs\u005camd64_microsoft.windows.common-controls_6595b64144ccf1df_6.0.7600.16385_none_fa645303170382f6\u005ccomctl32.dll
p186
aV    2312 conhost.exe          0x000007fefdc40000 True   True   True  \u005cWindows\u005cSystem32\u005cgdi32.dll
p187
aV    2312 conhost.exe          0x000007fefda50000 True   True   True  \u005cWindows\u005cSystem32\u005clpk.dll
p188
aV    2312 conhost.exe          0x000007fefee90000 True   True   True  \u005cWindows\u005cSystem32\u005csechost.dll
p189
aV    2312 conhost.exe          0x000007feff2d0000 True   True   True  \u005cWindows\u005cSystem32\u005cmsvcrt.dll
p190
aV    2312 conhost.exe          0x000007feff0e0000 True   True   True  \u005cWindows\u005cSystem32\u005coleaut32.dll
p191
aV    2312 conhost.exe          0x0000000077010000 True   True   True  \u005cWindows\u005cSystem32\u005ckernel32.dll
p192
aV    2312 conhost.exe          0x000007fefb960000 True   True   True  \u005cWindows\u005cSystem32\u005cuxtheme.dll
p193
aV    2312 conhost.exe          0x000007feff1c0000 True   True   True  \u005cWindows\u005cSystem32\u005cmsctf.dll
p194
aV    2312 conhost.exe          0x000007fefed60000 True   True   True  \u005cWindows\u005cSystem32\u005crpcrt4.dll
p195
aV    2312 conhost.exe          0x000007fefd5e0000 True   True   True  \u005cWindows\u005cSystem32\u005cusp10.dll
p196
aV    2312 conhost.exe          0x000007feff410000 True   True   True  \u005cWindows\u005cSystem32\u005cimm32.dll
p197
aV    2312 conhost.exe          0x000007fefd2b0000 True   True   True  \u005cWindows\u005cSystem32\u005cKernelBase.dll
p198
aV    2312 conhost.exe          0x000007fefdae0000 True   True   True  \u005cWindows\u005cSystem32\u005cadvapi32.dll
p199
aV    2312 conhost.exe          0x000007fefd700000 True   True   True  \u005cWindows\u005cSystem32\u005cole32.dll
p200
aV    2752 sppsvc.exe           0x000007feff0e0000 True   True   True  \u005cWindows\u005cSystem32\u005coleaut32.dll
p201
aV    2752 sppsvc.exe           0x000007fefc740000 True   True   True  \u005cWindows\u005cSystem32\u005cdnsapi.dll
p202
aV    2752 sppsvc.exe           0x000007fef38e0000 True   True   True  
p203
aV    2752 sppsvc.exe           0x000007fefcef0000 True   True   True  \u005cWindows\u005cSystem32\u005csspicli.dll
p204
aV    2752 sppsvc.exe           0x000007fefc920000 True   True   True  \u005cWindows\u005cSystem32\u005ccryptsp.dll
p205
aV    2752 sppsvc.exe           0x000007feff370000 True   True   True  \u005cWindows\u005cSystem32\u005cclbcatq.dll
p206
aV    2752 sppsvc.exe           0x00000000ff370000 True   False  True  
p207
aV    2752 sppsvc.exe           0x000007fefc620000 True   True   True  \u005cWindows\u005cSystem32\u005crsaenh.dll
p208
aV    2752 sppsvc.exe           0x000007feff090000 True   True   True  \u005cWindows\u005cSystem32\u005cws2_32.dll
p209
aV    2752 sppsvc.exe           0x000007fefd910000 True   True   True  \u005cWindows\u005cSystem32\u005cnsi.dll
p210
aV    2780 svchost.exe          0x000007fefcf80000 True   True   True  \u005cWindows\u005cSystem32\u005ccryptbase.dll
p211
aV    2780 svchost.exe          0x000007fefcec0000 True   True   True  \u005cWindows\u005cSystem32\u005csecur32.dll
p212
aV    2780 svchost.exe          0x000007fef3be0000 True   True   True  
p213
aV    2780 svchost.exe          0x000007fef4210000 True   True   True  
p214
aV    2780 svchost.exe          0x000007fefd460000 True   False  True  \u005cWindows\u005cSystem32\u005curlmon.dll
p215
aV    2780 svchost.exe          0x000007fefca90000 True   True   True  \u005cWindows\u005cSystem32\u005cbcrypt.dll
p216
aV    2780 svchost.exe          0x000007fefcef0000 True   True   True  \u005cWindows\u005cSystem32\u005csspicli.dll
p217
aV    2780 svchost.exe          0x000007fefc920000 True   True   True  \u005cWindows\u005cSystem32\u005ccryptsp.dll
p218
aV    2780 svchost.exe          0x000007fefed40000 True   True   True  \u005cWindows\u005cSystem32\u005cimagehlp.dll
p219
aV    2780 svchost.exe          0x000007fefeae0000 False  False  False \u005cWindows\u005cSystem32\u005ciertutil.dll
p220
aV    2780 svchost.exe          0x000007feff370000 False  False  False \u005cWindows\u005cSystem32\u005cclbcatq.dll
p221
aV    2780 svchost.exe          0x000007fef4180000 True   True   True  
p222
aV    2780 svchost.exe          0x000007fefd6b0000 False  False  False \u005cWindows\u005cSystem32\u005cWldap32.dll
p223
aV    2780 svchost.exe          0x000007fefd070000 True   True   True  \u005cWindows\u005cSystem32\u005cRpcRtRemote.dll
p224
aV    2780 svchost.exe          0x000007fefcac0000 True   True   True  \u005cWindows\u005cSystem32\u005cncrypt.dll
p225
asVAdded Entries
p226
(lp227
V     476 lsass.exe            0x000007fef39f0000 True   True   True  \u005cWindows\u005cSystem32\u005cdssenh.dll
p228
aV     476 lsass.exe            0x000007fefc3b0000 True   True   True  \u005cWindows\u005cSystem32\u005cgpapi.dll
p229
aV     704 svchost.exe          0x000007fef8130000 True   True   True  \u005cWindows\u005cSystem32\u005cwbem\u005cfastprox.dll
p230
aV     704 svchost.exe          0x000007fef3f80000 True   True   True  \u005cWindows\u005cSystem32\u005ccabinet.dll
p231
aV     704 svchost.exe          0x000007fef3fa0000 True   True   True  \u005cWindows\u005cSystem32\u005cwuapi.dll
p232
aV     704 svchost.exe          0x000007fefd320000 True   True   True  \u005cWindows\u005cSystem32\u005cwintrust.dll
p233
aV     704 svchost.exe          0x000007fefb250000 True   True   True  \u005cWindows\u005cSystem32\u005cnetutils.dll
p234
aV     704 svchost.exe          0x000007fef8480000 True   True   True  \u005cWindows\u005cSystem32\u005cwbemcomn.dll
p235
aV     704 svchost.exe          0x000007fefb290000 True   True   True  \u005cWindows\u005cSystem32\u005cwscsvc.dll
p236
aV     704 svchost.exe          0x000007fef8100000 True   True   True  \u005cWindows\u005cSystem32\u005cntdsapi.dll
p237
aV     704 svchost.exe          0x000007fefd140000 True   True   True  \u005cWindows\u005cSystem32\u005ccrypt32.dll
p238
aV     704 svchost.exe          0x000007fefd130000 True   True   True  \u005cWindows\u005cSystem32\u005cmsasn1.dll
p239
aV     704 svchost.exe          0x000007fefc3d0000 True   True   True  \u005cWindows\u005cSystem32\u005cuserenv.dll
p240
aV     704 svchost.exe          0x000007fefb230000 True   True   True  \u005cWindows\u005cSystem32\u005cwkscli.dll
p241
aV     704 svchost.exe          0x000007fef4050000 True   True   True  \u005cWindows\u005cSystem32\u005cdbghelp.dll
p242
aV     704 svchost.exe          0x000007fef7e80000 True   True   True  \u005cWindows\u005cSystem32\u005cwbem\u005cwbemsvc.dll
p243
aV     704 svchost.exe          0x000007fefd090000 True   True   True  \u005cWindows\u005cSystem32\u005cprofapi.dll
p244
aV     704 svchost.exe          0x000007fef80f0000 True   True   True  \u005cWindows\u005cSystem32\u005cwbem\u005cwbemprox.dll
p245
aV     860 svchost.exe          0x000007fef9a50000 True   True   True  \u005cWindows\u005cSystem32\u005cwer.dll
p246
aV     860 svchost.exe          0x000007fefb280000 True   True   True  \u005cWindows\u005cSystem32\u005cmspatcha.dll
p247
aV     860 svchost.exe          0x000007fef3f80000 True   True   True  \u005cWindows\u005cSystem32\u005ccabinet.dll
p248
aV     860 svchost.exe          0x000007fefca70000 True   True   True  \u005cWindows\u005cSystem32\u005cwmsgapi.dll
p249
aV     860 svchost.exe          0x000007fef3d20000 True   True   True  \u005cWindows\u005cSystem32\u005cwuaueng.dll
p250
aV     860 svchost.exe          0x000007fef32c0000 True   True   True  \u005cWindows\u005cSystem32\u005caelupsvc.dll
p251
aV     860 svchost.exe          0x000007fef6860000 True   True   True  \u005cWindows\u005cSystem32\u005cesent.dll
p252
aV     860 svchost.exe          0x0000000001580000 False  False  False \u005cWindows\u005cSystem32\u005cen-US\u005cwuaueng.dll.mui
p253
aV     860 svchost.exe          0x000007fef72d0000 True   True   True  \u005cWindows\u005cSystem32\u005cwinspool.drv
p254
aV     860 svchost.exe          0x00000000772f0000 True   True   True  \u005cWindows\u005cSystem32\u005cpsapi.dll
p255
aV     860 svchost.exe          0x000007fef6140000 True   True   True  \u005cWindows\u005cSystem32\u005cwbem\u005cNCProv.dll
p256
aV     528 svchost.exe          0x000007fef6860000 True   True   True  \u005cWindows\u005cSystem32\u005cesent.dll
p257
aV     528 svchost.exe          0x00000000772f0000 True   True   True  \u005cWindows\u005cSystem32\u005cpsapi.dll
p258
aV    1080 explorer.exe         0x0000000077130000 True   True   True  \u005cWindows\u005cSystem32\u005cntdll.dll
p259
aV    1080 explorer.exe         0x000007fef3b80000 True   True   True  \u005cWindows\u005cSystem32\u005chcproviders.dll
p260
aV    1080 explorer.exe         0x0000000003f80000 False  False  False \u005cWindows\u005cSystem32\u005cmsxml6r.dll
p261
aV    1080 explorer.exe         0x000007fef7920000 True   True   True  \u005cWindows\u005cSystem32\u005cmsxml6.dll
p262
aV    1080 explorer.exe         0x0000000003f90000 False  False  False \u005cWindows\u005cSystem32\u005cen-US\u005curlmon.dll.mui
p263
aV    1080 explorer.exe         0x000007fef37c0000 True   True   True  \u005cWindows\u005cSystem32\u005cwscui.cpl
p264
aV    1080 explorer.exe         0x0000000004080000 False  False  False \u005cWindows\u005cSystem32\u005cen-US\u005cActionCenter.dll.mui
p265
aV    1080 explorer.exe         0x00000000745e0000 True   True   True  \u005cWindows\u005cSystem32\u005cFXSRESM.dll
p266
aV    1080 explorer.exe         0x0000000077300000 True   True   True  \u005cWindows\u005cSystem32\u005cnormaliz.dll
p267
aV    1080 explorer.exe         0x0000000007020000 False  False  False \u005cWindows\u005cSystem32\u005cimageres.dll
p268
aV    1080 explorer.exe         0x0000000006860000 False  False  False \u005cWindows\u005cSystem32\u005cen-US\u005cKernelBase.dll.mui
p269
aV    1080 explorer.exe         0x0000000004910000 False  False  False \u005cWindows\u005cSystem32\u005cimageres.dll
p270
aV    1080 explorer.exe         0x000007fef3b90000 True   True   True  \u005cWindows\u005cSystem32\u005cwercplsupport.dll
p271
aV    1080 explorer.exe         0x000007fef3680000 True   True   True  \u005cWindows\u005cSystem32\u005cwerconcpl.dll
p272
aV    1080 explorer.exe         0x000007fef3be0000 True   True   True  \u005cWindows\u005cSystem32\u005cwscapi.dll
p273
aV    1080 explorer.exe         0x0000000073960000 True   True   True  \u005cWindows\u005cSystem32\u005cksuser.dll
p274
aV    1080 explorer.exe         0x000007fef3a30000 True   True   True  \u005cProgram Files\u005cInternet Explorer\u005cieproxy.dll
p275
aV    1080 explorer.exe         0x000007fef3ab0000 True   True   True  \u005cWindows\u005cSystem32\u005cframedynos.dll
p276
aV    1080 explorer.exe         0x00000000772f0000 True   True   True  \u005cWindows\u005cSystem32\u005cpsapi.dll
p277
aV    1080 explorer.exe         0x0000000076f10000 True   True   True  \u005cWindows\u005cSystem32\u005cuser32.dll
p278
aV    1080 explorer.exe         0x000007fef3bb0000 True   True   True  \u005cWindows\u005cSystem32\u005cwscinterop.dll
p279
aV    1080 explorer.exe         0x0000000077010000 True   True   True  \u005cWindows\u005cSystem32\u005ckernel32.dll
p280
aV    1160 spoolsv.exe          0x0000000000380000 False  False  False \u005cWindows\u005cSystem32\u005cmsxml6r.dll
p281
aV    1160 spoolsv.exe          0x00000000027e0000 False  False  False \u005cWindows\u005cSystem32\u005cen-US\u005cKernelBase.dll.mui
p282
aV    1160 spoolsv.exe          0x000007fef9530000 True   True   True  \u005cWindows\u005cSystem32\u005cPrintIsolationProxy.dll
p283
aV    1160 spoolsv.exe          0x000007fefc8b0000 True   True   True  \u005cWindows\u005cSystem32\u005cwship6.dll
p284
aV    1160 spoolsv.exe          0x000007fefc920000 True   True   True  \u005cWindows\u005cSystem32\u005ccryptsp.dll
p285
aV    1160 spoolsv.exe          0x000007fefdbc0000 True   True   True  \u005cWindows\u005cSystem32\u005cshlwapi.dll
p286
aV    1160 spoolsv.exe          0x000007fefab20000 True   True   True  \u005cWindows\u005cSystem32\u005cIPHLPAPI.DLL
p287
aV    1160 spoolsv.exe          0x000007fefc410000 True   True   True  \u005cWindows\u005cSystem32\u005cSPInf.dll
p288
aV    1160 spoolsv.exe          0x000007fef4400000 True   True   True  \u005cWindows\u005cSystem32\u005cspool\u005cprtprocs\u005cx64\u005cwinprint.dll
p289
aV    1160 spoolsv.exe          0x000007fefc3f0000 True   True   True  \u005cWindows\u005cSystem32\u005cdevrtl.dll
p290
aV    1160 spoolsv.exe          0x000007fefc210000 True   True   True  \u005cWindows\u005cSystem32\u005cFirewallAPI.dll
p291
aV    1160 spoolsv.exe          0x000007fef4340000 True   True   True  \u005cWindows\u005cSystem32\u005cwin32spl.dll
p292
aV    1160 spoolsv.exe          0x000007fef4420000 True   True   True  \u005cWindows\u005cSystem32\u005cWSDMon.dll
p293
aV    1160 spoolsv.exe          0x000007fefc620000 True   True   True  \u005cWindows\u005cSystem32\u005crsaenh.dll
p294
aV    1160 spoolsv.exe          0x000007fef4460000 True   True   True  \u005cWindows\u005cSystem32\u005cWlS0WndH.dll
p295
aV    1160 spoolsv.exe          0x000007fefa130000 True   True   True  \u005cWindows\u005cSystem32\u005ccscapi.dll
p296
aV    1160 spoolsv.exe          0x000007fefce20000 True   True   True  \u005cWindows\u005cSystem32\u005csrvcli.dll
p297
aV    1160 spoolsv.exe          0x000007fef60a0000 True   True   True  \u005cWindows\u005cSystem32\u005csnmpapi.dll
p298
aV    1160 spoolsv.exe          0x000007fefc8c0000 True   True   True  \u005cWindows\u005cSystem32\u005cmswsock.dll
p299
aV    1160 spoolsv.exe          0x000007fef72d0000 True   True   True  \u005cWindows\u005cSystem32\u005cwinspool.drv
p300
aV    1160 spoolsv.exe          0x000007fefac00000 True   True   True  \u005cWindows\u005cSystem32\u005cdsrole.dll
p301
aV    1160 spoolsv.exe          0x000007fef7920000 True   True   True  \u005cWindows\u005cSystem32\u005cmsxml6.dll
p302
aV    1160 spoolsv.exe          0x000007fefd030000 True   True   True  \u005cWindows\u005cSystem32\u005cwinsta.dll
p303
aV    1160 spoolsv.exe          0x000007fef6100000 True   True   True  \u005cWindows\u005cSystem32\u005cspoolss.dll
p304
aV    1160 spoolsv.exe          0x000007fef4310000 True   True   True  \u005cWindows\u005cSystem32\u005cinetpp.dll
p305
aV    1160 spoolsv.exe          0x000007fef6120000 True   True   True  \u005cWindows\u005cSystem32\u005cumb.dll
p306
aV    1160 spoolsv.exe          0x000007fefd140000 True   True   True  \u005cWindows\u005cSystem32\u005ccrypt32.dll
p307
aV    1160 spoolsv.exe          0x000007fef8b80000 True   True   True  \u005cWindows\u005cSystem32\u005cWSDApi.dll
p308
aV    1160 spoolsv.exe          0x000007feff370000 True   True   True  \u005cWindows\u005cSystem32\u005cclbcatq.dll
p309
aV    1160 spoolsv.exe          0x000007fefd130000 True   True   True  \u005cWindows\u005cSystem32\u005cmsasn1.dll
p310
aV    1160 spoolsv.exe          0x000007fefac20000 True   True   True  \u005cWindows\u005cSystem32\u005catl.dll
p311
aV    1160 spoolsv.exe          0x000007fefa9a0000 True   True   True  \u005cWindows\u005cSystem32\u005cFWPUCLNT.DLL
p312
aV    1160 spoolsv.exe          0x000007fefc2d0000 True   True   True  \u005cWindows\u005cSystem32\u005cWSHTCPIP.DLL
p313
aV    1160 spoolsv.exe          0x000007fefb3b0000 True   True   True  \u005cWindows\u005cSystem32\u005crasadhlp.dll
p314
aV    1160 spoolsv.exe          0x000007fefd320000 True   True   True  \u005cWindows\u005cSystem32\u005cwintrust.dll
p315
aV    1160 spoolsv.exe          0x000007fefc3b0000 True   True   True  \u005cWindows\u005cSystem32\u005cgpapi.dll
p316
aV    1160 spoolsv.exe          0x000007fefc3d0000 True   True   True  \u005cWindows\u005cSystem32\u005cuserenv.dll
p317
aV    1160 spoolsv.exe          0x000007fefc200000 True   True   True  \u005cWindows\u005cSystem32\u005cversion.dll
p318
aV    1160 spoolsv.exe          0x000007fef4410000 True   True   True  \u005cWindows\u005cSystem32\u005cfdPnp.dll
p319
aV    1160 spoolsv.exe          0x000007fef60f0000 True   True   True  \u005cWindows\u005cSystem32\u005cFXSMON.dll
p320
aV    1160 spoolsv.exe          0x000007fef8a20000 True   True   True  \u005cWindows\u005cSystem32\u005cfundisc.dll
p321
aV    1160 spoolsv.exe          0x000007fefab10000 True   True   True  \u005cWindows\u005cSystem32\u005cwinnsi.dll
p322
aV    1160 spoolsv.exe          0x000007fefd070000 True   True   True  \u005cWindows\u005cSystem32\u005cRpcRtRemote.dll
p323
aV    1160 spoolsv.exe          0x000007fef8a60000 True   True   True  \u005cWindows\u005cSystem32\u005cwebservices.dll
p324
aV    1160 spoolsv.exe          0x000007fef4470000 True   True   True  \u005cWindows\u005cSystem32\u005cwsnmp32.dll
p325
aV    1160 spoolsv.exe          0x000007fef4490000 True   True   True  \u005cWindows\u005cSystem32\u005clocalspl.dll
p326
aV    1160 spoolsv.exe          0x000007fef6090000 True   True   True  \u005cWindows\u005cSystem32\u005cusbmon.dll
p327
aV    1160 spoolsv.exe          0x000007fefb250000 True   True   True  \u005cWindows\u005cSystem32\u005cnetutils.dll
p328
aV    1160 spoolsv.exe          0x000007fef60b0000 True   True   True  \u005cWindows\u005cSystem32\u005ctcpmon.dll
p329
aV    1160 spoolsv.exe          0x000007fefd090000 True   True   True  \u005cWindows\u005cSystem32\u005cprofapi.dll
p330
aV    1192 taskhost.exe         0x0000000000130000 False  False  False \u005cWindows\u005cSystem32\u005cen-US\u005cwdmaud.drv.mui
p331
aV    1192 taskhost.exe         0x0000000000140000 False  False  False \u005cWindows\u005cSystem32\u005cen-US\u005cMMDevAPI.dll.mui
p332
aV    1192 taskhost.exe         0x000007fefb9c0000 True   True   True  \u005cWindows\u005cSystem32\u005cpropsys.dll
p333
aV    1192 taskhost.exe         0x000007fefd440000 True   True   True  \u005cWindows\u005cSystem32\u005cdevobj.dll
p334
aV    1192 taskhost.exe         0x000007fef9270000 True   True   True  \u005cWindows\u005cSystem32\u005cmsacm32.dll
p335
aV    1192 taskhost.exe         0x000007fef9290000 True   True   True  \u005cWindows\u005cSystem32\u005cmsacm32.drv
p336
aV    1192 taskhost.exe         0x000007fef92f0000 True   True   True  \u005cWindows\u005cSystem32\u005cwdmaud.drv
p337
aV    1192 taskhost.exe         0x000007fefb000000 True   True   True  \u005cWindows\u005cSystem32\u005cavrt.dll
p338
aV    1192 taskhost.exe         0x0000000073960000 True   True   True  \u005cWindows\u005cSystem32\u005cksuser.dll
p339
aV    1192 taskhost.exe         0x000007fefb550000 True   True   True  \u005cWindows\u005cSystem32\u005cMMDevAPI.dll
p340
aV    1192 taskhost.exe         0x000007fefd400000 True   True   True  \u005cWindows\u005cSystem32\u005ccfgmgr32.dll
p341
aV    1192 taskhost.exe         0x000007fef9260000 True   True   True  \u005cWindows\u005cSystem32\u005cmidimap.dll
p342
aV    1192 taskhost.exe         0x000007fefeeb0000 True   True   True  \u005cWindows\u005cSystem32\u005csetupapi.dll
p343
aV    1192 taskhost.exe         0x000007fef92a0000 True   True   True  \u005cWindows\u005cSystem32\u005cAudioSes.dll
p344
aV    1308 SearchIndexer.       0x00000000741e0000 True   True   True  \u005cWindows\u005cSystem32\u005cNlsLexicons0010.dll
p345
aV    1308 SearchIndexer.       0x000007fef2a50000 True   True   True  \u005cWindows\u005cSystem32\u005cNlsData0010.dll
p346
aV    1308 SearchIndexer.       0x000007fef32b0000 True   True   True  \u005cWindows\u005cSystem32\u005cELSCore.dll
p347
aV    1308 SearchIndexer.       0x000007fef2ec0000 True   True   True  \u005cWindows\u005cSystem32\u005celslad.dll
p348
aV    2752 sppsvc.exe           0x000007fef38e0000 True   True   True  \u005cWindows\u005cSystem32\u005csppobjs.dll
p349
aV    2752 sppsvc.exe           0x00000000ff370000 True   False  True  \u005cWindows\u005cSystem32\u005csppsvc.exe
p350
aV    2780 svchost.exe          0x000007fef3be0000 True   True   True  \u005cWindows\u005cSystem32\u005cwscapi.dll
p351
aV    2780 svchost.exe          0x000007fef4210000 True   True   True  \u005cProgram Files\u005cWindows Defender\u005cMpSvc.dll
p352
aV    2780 svchost.exe          0x000007fefd460000 True   True   True  \u005cWindows\u005cSystem32\u005curlmon.dll
p353
aV    2780 svchost.exe          0x000007fefeae0000 True   True   True  \u005cWindows\u005cSystem32\u005ciertutil.dll
p354
aV    2780 svchost.exe          0x000007feff370000 True   True   True  \u005cWindows\u005cSystem32\u005cclbcatq.dll
p355
aV    2780 svchost.exe          0x000007fef4180000 True   True   True  \u005cProgram Files\u005cWindows Defender\u005cMpClient.dll
p356
aV    2780 svchost.exe          0x000007fefd6b0000 True   True   True  \u005cWindows\u005cSystem32\u005cWldap32.dll
p357
aV    2780 svchost.exe          0x000007fefafb0000 True   True   True  \u005cWindows\u005cSystem32\u005cntmarta.dll
p358
aV    3016 slui.exe             0x0000000000170000 False  False  False \u005cWindows\u005cSystem32\u005cen-US\u005cslui.exe.mui
p359
aV    3016 slui.exe             0x0000000001be0000 False  False  False \u005cWindows\u005cSystem32\u005cen-US\u005csppcommdlg.dll.mui
p360
aV    3016 slui.exe             0x0000000077130000 True   True   True  \u005cWindows\u005cSystem32\u005cntdll.dll
p361
aV    3016 slui.exe             0x000007fefbb40000 True   True   True  \u005cWindows\u005cwinsxs\u005camd64_microsoft.windows.common-controls_6595b64144ccf1df_6.0.7600.16385_none_fa645303170382f6\u005ccomctl32.dll
p362
aV    3016 slui.exe             0x000007feff2d0000 True   True   True  \u005cWindows\u005cSystem32\u005cmsvcrt.dll
p363
aV    3016 slui.exe             0x0000000001c30000 False  False  False \u005cWindows\u005cSystem32\u005cen-US\u005cduser.dll.mui
p364
aV    3016 slui.exe             0x000007fef3360000 True   True   True  \u005cWindows\u005cSystem32\u005csppcomapi.dll
p365
aV    3016 slui.exe             0x000007fefd440000 True   True   True  \u005cWindows\u005cSystem32\u005cdevobj.dll
p366
aV    3016 slui.exe             0x000007fefcf80000 True   True   True  \u005cWindows\u005cSystem32\u005ccryptbase.dll
p367
aV    3016 slui.exe             0x000007fefd5e0000 True   True   True  \u005cWindows\u005cSystem32\u005cusp10.dll
p368
aV    3016 slui.exe             0x000007fef33a0000 True   True   True  \u005cWindows\u005cSystem32\u005csppcommdlg.dll
p369
aV    3016 slui.exe             0x000007fefdc40000 True   True   True  \u005cWindows\u005cSystem32\u005cgdi32.dll
p370
aV    3016 slui.exe             0x000007fefdbc0000 True   True   True  \u005cWindows\u005cSystem32\u005cshlwapi.dll
p371
aV    3016 slui.exe             0x000007fef9720000 True   True   True  \u005cWindows\u005cSystem32\u005cmsi.dll
p372
aV    3016 slui.exe             0x000007fef6440000 True   True   True  \u005cWindows\u005cSystem32\u005crasman.dll
p373
aV    3016 slui.exe             0x000007fefb5f0000 True   True   True  \u005cWindows\u005cSystem32\u005cduser.dll
p374
aV    3016 slui.exe             0x000007fefd400000 True   True   True  \u005cWindows\u005cSystem32\u005ccfgmgr32.dll
p375
aV    3016 slui.exe             0x000007fefd460000 True   True   True  \u005cWindows\u005cSystem32\u005curlmon.dll
p376
aV    3016 slui.exe             0x000007fef8840000 True   True   True  \u005cWindows\u005cSystem32\u005cwinhttp.dll
p377
aV    3016 slui.exe             0x000007fef3440000 True   True   True  \u005cWindows\u005cSystem32\u005cslwga.dll
p378
aV    3016 slui.exe             0x000007fefd140000 True   True   True  \u005cWindows\u005cSystem32\u005ccrypt32.dll
p379
aV    3016 slui.exe             0x000007fef6460000 True   True   True  \u005cWindows\u005cSystem32\u005crasapi32.dll
p380
aV    3016 slui.exe             0x000007fef9520000 True   True   True  \u005cWindows\u005cSystem32\u005cwinbrand.dll
p381
aV    3016 slui.exe             0x000007fefcf90000 True   True   True  \u005cWindows\u005cSystem32\u005csxs.dll
p382
aV    3016 slui.exe             0x000007fefed60000 True   True   True  \u005cWindows\u005cSystem32\u005crpcrt4.dll
p383
aV    3016 slui.exe             0x00000000ff2b0000 True   False  True  \u005cWindows\u005cSystem32\u005cslui.exe
p384
aV    3016 slui.exe             0x000007fefdae0000 True   True   True  \u005cWindows\u005cSystem32\u005cadvapi32.dll
p385
aV    3016 slui.exe             0x000007fef3320000 True   True   True  \u005cWindows\u005cSystem32\u005cWinSCard.dll
p386
aV    3016 slui.exe             0x000007fef87d0000 True   True   True  \u005cWindows\u005cSystem32\u005cwebio.dll
p387
aV    3016 slui.exe             0x000007feff0e0000 True   True   True  \u005cWindows\u005cSystem32\u005coleaut32.dll
p388
aV    3016 slui.exe             0x000007feff370000 True   True   True  \u005cWindows\u005cSystem32\u005cclbcatq.dll
p389
aV    3016 slui.exe             0x000007fefb530000 True   True   True  \u005cWindows\u005cSystem32\u005cdwmapi.dll
p390
aV    3016 slui.exe             0x000007fefc920000 True   True   True  \u005cWindows\u005cSystem32\u005ccryptsp.dll
p391
aV    3016 slui.exe             0x000007fefeae0000 True   True   True  \u005cWindows\u005cSystem32\u005ciertutil.dll
p392
aV    3016 slui.exe             0x000007fefbd40000 True   True   True  \u005cWindows\u005cSystem32\u005ccryptui.dll
p393
aV    3016 slui.exe             0x0000000077010000 True   True   True  \u005cWindows\u005cSystem32\u005ckernel32.dll
p394
aV    3016 slui.exe             0x000007fefb960000 True   True   True  \u005cWindows\u005cSystem32\u005cuxtheme.dll
p395
aV    3016 slui.exe             0x000007fef2f70000 True   True   True  \u005cWindows\u005cSystem32\u005csppcext.dll
p396
aV    3016 slui.exe             0x000007feff410000 True   True   True  \u005cWindows\u005cSystem32\u005cimm32.dll
p397
aV    3016 slui.exe             0x000007fefd2b0000 True   True   True  \u005cWindows\u005cSystem32\u005cKernelBase.dll
p398
aV    3016 slui.exe             0x000007fefb390000 True   True   True  \u005cWindows\u005cSystem32\u005cwtsapi32.dll
p399
aV    3016 slui.exe             0x000007feff1c0000 True   True   True  \u005cWindows\u005cSystem32\u005cmsctf.dll
p400
aV    3016 slui.exe             0x000007fefee90000 True   True   True  \u005cWindows\u005cSystem32\u005csechost.dll
p401
aV    3016 slui.exe             0x0000000001bd0000 False  False  False \u005cWindows\u005cSystem32\u005cstdole2.tlb
p402
aV    3016 slui.exe             0x0000000002de0000 False  False  False \u005cWindows\u005cSystem32\u005cimageres.dll
p403
aV    3016 slui.exe             0x000007fefabf0000 True   True   True  \u005cWindows\u005cSystem32\u005cslc.dll
p404
aV    3016 slui.exe             0x000007fefd130000 True   True   True  \u005cWindows\u005cSystem32\u005cmsasn1.dll
p405
aV    3016 slui.exe             0x000007fef3410000 True   True   True  \u005cWindows\u005cSystem32\u005csppc.dll
p406
aV    3016 slui.exe             0x0000000076f10000 True   True   True  \u005cWindows\u005cSystem32\u005cuser32.dll
p407
aV    3016 slui.exe             0x000007fefc620000 True   True   True  \u005cWindows\u005cSystem32\u005crsaenh.dll
p408
aV    3016 slui.exe             0x0000000001c50000 False  False  False \u005cWindows\u005cwinsxs\u005camd64_microsoft.windows.c..-controls.resources_6595b64144ccf1df_6.0.7600.16385_en-us_106f9be843a9b4e3\u005ccomctl32.dll.mui
p409
aV    3016 slui.exe             0x000007fefda50000 True   True   True  \u005cWindows\u005cSystem32\u005clpk.dll
p410
aV    3016 slui.exe             0x000007fefeeb0000 True   True   True  \u005cWindows\u005cSystem32\u005csetupapi.dll
p411
aV    3016 slui.exe             0x000007fefd070000 True   True   True  \u005cWindows\u005cSystem32\u005cRpcRtRemote.dll
p412
aV    3016 slui.exe             0x000007feff090000 True   True   True  \u005cWindows\u005cSystem32\u005cws2_32.dll
p413
aV    3016 slui.exe             0x000007fefdcb0000 True   True   True  \u005cWindows\u005cSystem32\u005cshell32.dll
p414
aV    3016 slui.exe             0x000007fef32e0000 True   True   True  \u005cWindows\u005cSystem32\u005ctapi32.dll
p415
aV    3016 slui.exe             0x000007fefd700000 True   True   True  \u005cWindows\u005cSystem32\u005cole32.dll
p416
aV    3016 slui.exe             0x000007fefd910000 True   True   True  \u005cWindows\u005cSystem32\u005cnsi.dll
p417
aV    1404 WmiPrvSE.exe         0x0000000076f10000 True   True   True  \u005cWindows\u005cSystem32\u005cuser32.dll
p418
aV    1404 WmiPrvSE.exe         0x0000000077130000 True   True   True  \u005cWindows\u005cSystem32\u005cntdll.dll
p419
aV    1404 WmiPrvSE.exe         0x000007fef80f0000 True   True   True  \u005cWindows\u005cSystem32\u005cwbem\u005cwbemprox.dll
p420
aV    1404 WmiPrvSE.exe         0x000007fefcf80000 True   True   True  \u005cWindows\u005cSystem32\u005ccryptbase.dll
p421
aV    1404 WmiPrvSE.exe         0x000007fef29b0000 True   True   True  \u005cWindows\u005cSystem32\u005cwbem\u005cwmiprov.dll
p422
aV    1404 WmiPrvSE.exe         0x000007fef7dd0000 True   True   True  \u005cWindows\u005cSystem32\u005cwbem\u005cwmiutils.dll
p423
aV    1404 WmiPrvSE.exe         0x000007fefd700000 True   True   True  \u005cWindows\u005cSystem32\u005cole32.dll
p424
aV    1404 WmiPrvSE.exe         0x000007fefdc40000 True   True   True  \u005cWindows\u005cSystem32\u005cgdi32.dll
p425
aV    1404 WmiPrvSE.exe         0x000007fefda50000 True   True   True  \u005cWindows\u005cSystem32\u005clpk.dll
p426
aV    1404 WmiPrvSE.exe         0x000007fef8480000 True   True   True  \u005cWindows\u005cSystem32\u005cwbemcomn.dll
p427
aV    1404 WmiPrvSE.exe         0x000007fefee90000 True   True   True  \u005cWindows\u005cSystem32\u005csechost.dll
p428
aV    1404 WmiPrvSE.exe         0x000007fefd2b0000 True   True   True  \u005cWindows\u005cSystem32\u005cKernelBase.dll
p429
aV    1404 WmiPrvSE.exe         0x000007feff2d0000 True   True   True  \u005cWindows\u005cSystem32\u005cmsvcrt.dll
p430
aV    1404 WmiPrvSE.exe         0x000007feff0e0000 True   True   True  \u005cWindows\u005cSystem32\u005coleaut32.dll
p431
aV    1404 WmiPrvSE.exe         0x000007fef8100000 True   True   True  \u005cWindows\u005cSystem32\u005cntdsapi.dll
p432
aV    1404 WmiPrvSE.exe         0x000007fefc920000 True   True   True  \u005cWindows\u005cSystem32\u005ccryptsp.dll
p433
aV    1404 WmiPrvSE.exe         0x000007fefed60000 True   True   True  \u005cWindows\u005cSystem32\u005crpcrt4.dll
p434
aV    1404 WmiPrvSE.exe         0x000007feff370000 True   True   True  \u005cWindows\u005cSystem32\u005cclbcatq.dll
p435
aV    1404 WmiPrvSE.exe         0x000007feff410000 True   True   True  \u005cWindows\u005cSystem32\u005cimm32.dll
p436
aV    1404 WmiPrvSE.exe         0x000007fefd6b0000 True   True   True  \u005cWindows\u005cSystem32\u005cWldap32.dll
p437
aV    1404 WmiPrvSE.exe         0x000007fefafb0000 True   True   True  \u005cWindows\u005cSystem32\u005cntmarta.dll
p438
aV    1404 WmiPrvSE.exe         0x000007feff1c0000 True   True   True  \u005cWindows\u005cSystem32\u005cmsctf.dll
p439
aV    1404 WmiPrvSE.exe         0x000007fefd5e0000 True   True   True  \u005cWindows\u005cSystem32\u005cusp10.dll
p440
aV    1404 WmiPrvSE.exe         0x00000000ffff0000 True   False  True  \u005cWindows\u005cSystem32\u005cwbem\u005cWmiPrvSE.exe
p441
aV    1404 WmiPrvSE.exe         0x0000000077010000 True   True   True  \u005cWindows\u005cSystem32\u005ckernel32.dll
p442
aV    1404 WmiPrvSE.exe         0x000007fef8130000 True   True   True  \u005cWindows\u005cSystem32\u005cwbem\u005cfastprox.dll
p443
aV    1404 WmiPrvSE.exe         0x000007fefc620000 True   True   True  \u005cWindows\u005cSystem32\u005crsaenh.dll
p444
aV    1404 WmiPrvSE.exe         0x000007fefd070000 True   True   True  \u005cWindows\u005cSystem32\u005cRpcRtRemote.dll
p445
aV    1404 WmiPrvSE.exe         0x000007fef7c70000 True   True   True  \u005cWindows\u005cSystem32\u005cncobjapi.dll
p446
aV    1404 WmiPrvSE.exe         0x000007fef7e80000 True   True   True  \u005cWindows\u005cSystem32\u005cwbem\u005cwbemsvc.dll
p447
aV    1404 WmiPrvSE.exe         0x000007feff090000 True   True   True  \u005cWindows\u005cSystem32\u005cws2_32.dll
p448
aV    1404 WmiPrvSE.exe         0x000007fefdae0000 True   True   True  \u005cWindows\u005cSystem32\u005cadvapi32.dll
p449
aV    1404 WmiPrvSE.exe         0x000007fefd910000 True   True   True  \u005cWindows\u005cSystem32\u005cnsi.dll
p450
assVenvars
p451
(dp452
VRemoved Entries
p453
(lp454
V    1360 reader_sl.exe        0x00000000002e1320 ALLUSERSPROFILE                C:\u005cProgramData
p455
aV    1360 reader_sl.exe        0x00000000002e1320 APPDATA                        C:\u005cUsers\u005clophi\u005cAppData\u005cRoaming
p456
aV    1360 reader_sl.exe        0x00000000002e1320 CommonProgramFiles             C:\u005cProgram Files\u005cCommon Files
p457
aV    1360 reader_sl.exe        0x00000000002e1320 CommonProgramFiles(x86)        C:\u005cProgram Files (x86)\u005cCommon Files
p458
aV    1360 reader_sl.exe        0x00000000002e1320 CommonProgramW6432             C:\u005cProgram Files\u005cCommon Files
p459
aV    1360 reader_sl.exe        0x00000000002e1320 COMPUTERNAME                   LOPHI-PC
p460
aV    1360 reader_sl.exe        0x00000000002e1320 ComSpec                        C:\u005cWindows\u005csystem32\u005ccmd.exe
p461
aV    1360 reader_sl.exe        0x00000000002e1320 FP_NO_HOST_CHECK               NO
p462
aV    1360 reader_sl.exe        0x00000000002e1320 HOMEDRIVE                      C:
p463
aV    1360 reader_sl.exe        0x00000000002e1320 HOMEPATH                       \u005cUsers\u005clophi
p464
aV    1360 reader_sl.exe        0x00000000002e1320 LOCALAPPDATA                   C:\u005cUsers\u005clophi\u005cAppData\u005cLocal
p465
aV    1360 reader_sl.exe        0x00000000002e1320 LOGONSERVER                    \u005c\u005cLOPHI-PC
p466
aV    1360 reader_sl.exe        0x00000000002e1320 NUMBER_OF_PROCESSORS           1
p467
aV    1360 reader_sl.exe        0x00000000002e1320 OS                             Windows_NT
p468
aV    1360 reader_sl.exe        0x00000000002e1320 Path                           C:\u005cWindows\u005csystem32;C:\u005cWindows;C:\u005cWindows\u005cSystem32\u005cWbem;C:\u005cWindows\u005cSystem32\u005cWindowsPowerShell\u005cv1.0\u005c;C:\u005cPython27
p469
aV    1360 reader_sl.exe        0x00000000002e1320 PATHEXT                        .COM;.EXE;.BAT;.CMD;.VBS;.VBE;.JS;.JSE;.WSF;.WSH;.MSC
p470
aV    1360 reader_sl.exe        0x00000000002e1320 PROCESSOR_ARCHITECTURE         AMD64
p471
aV    1360 reader_sl.exe        0x00000000002e1320 PROCESSOR_IDENTIFIER           Intel64 Family 6 Model 6 Stepping 3, GenuineIntel
p472
aV    1360 reader_sl.exe        0x00000000002e1320 PROCESSOR_LEVEL                6
p473
aV    1360 reader_sl.exe        0x00000000002e1320 PROCESSOR_REVISION             0603
p474
aV    1360 reader_sl.exe        0x00000000002e1320 ProgramData                    C:\u005cProgramData
p475
aV    1360 reader_sl.exe        0x00000000002e1320 ProgramFiles                   C:\u005cProgram Files
p476
aV    1360 reader_sl.exe        0x00000000002e1320 ProgramFiles(x86)              C:\u005cProgram Files (x86)
p477
aV    1360 reader_sl.exe        0x00000000002e1320 ProgramW6432                   C:\u005cProgram Files
p478
aV    1360 reader_sl.exe        0x00000000002e1320 PSModulePath                   C:\u005cWindows\u005csystem32\u005cWindowsPowerShell\u005cv1.0\u005cModules\u005c
p479
aV    1360 reader_sl.exe        0x00000000002e1320 PUBLIC                         C:\u005cUsers\u005cPublic
p480
aV    1360 reader_sl.exe        0x00000000002e1320 SESSIONNAME                    Console
p481
aV    1360 reader_sl.exe        0x00000000002e1320 SystemDrive                    C:
p482
aV    1360 reader_sl.exe        0x00000000002e1320 SystemRoot                     C:\u005cWindows
p483
aV    1360 reader_sl.exe        0x00000000002e1320 TEMP                           C:\u005cUsers\u005clophi\u005cAppData\u005cLocal\u005cTemp
p484
aV    1360 reader_sl.exe        0x00000000002e1320 TMP                            C:\u005cUsers\u005clophi\u005cAppData\u005cLocal\u005cTemp
p485
aV    1360 reader_sl.exe        0x00000000002e1320 USERDOMAIN                     lophi-PC
p486
aV    1360 reader_sl.exe        0x00000000002e1320 USERNAME                       lophi
p487
aV    1360 reader_sl.exe        0x00000000002e1320 USERPROFILE                    C:\u005cUsers\u005clophi
p488
aV    1360 reader_sl.exe        0x00000000002e1320 windir                         C:\u005cWindows
p489
aV     268 SearchFilterHo       0x0000000000371320 ALLUSERSPROFILE                C:\u005cProgramData
p490
aV     268 SearchFilterHo       0x0000000000371320 APPDATA                        C:\u005cWindows\u005csystem32\u005cconfig\u005csystemprofile\u005cAppData\u005cRoaming
p491
aV     268 SearchFilterHo       0x0000000000371320 CommonProgramFiles             C:\u005cProgram Files\u005cCommon Files
p492
aV     268 SearchFilterHo       0x0000000000371320 CommonProgramFiles(x86)        C:\u005cProgram Files (x86)\u005cCommon Files
p493
aV     268 SearchFilterHo       0x0000000000371320 CommonProgramW6432             C:\u005cProgram Files\u005cCommon Files
p494
aV     268 SearchFilterHo       0x0000000000371320 COMPUTERNAME                   LOPHI-PC
p495
aV     268 SearchFilterHo       0x0000000000371320 ComSpec                        C:\u005cWindows\u005csystem32\u005ccmd.exe
p496
aV     268 SearchFilterHo       0x0000000000371320 FP_NO_HOST_CHECK               NO
p497
aV     268 SearchFilterHo       0x0000000000371320 LOCALAPPDATA                   C:\u005cWindows\u005csystem32\u005cconfig\u005csystemprofile\u005cAppData\u005cLocal
p498
aV     268 SearchFilterHo       0x0000000000371320 NUMBER_OF_PROCESSORS           1
p499
aV     268 SearchFilterHo       0x0000000000371320 OS                             Windows_NT
p500
aV     268 SearchFilterHo       0x0000000000371320 Path                           C:\u005cWindows\u005csystem32;C:\u005cWindows;C:\u005cWindows\u005cSystem32\u005cWbem;C:\u005cWindows\u005cSystem32\u005cWindowsPowerShell\u005cv1.0\u005c;C:\u005cPython27;C:\u005cWindows\u005csystem32
p501
aV     268 SearchFilterHo       0x0000000000371320 PATHEXT                        .COM;.EXE;.BAT;.CMD;.VBS;.VBE;.JS;.JSE;.WSF;.WSH;.MSC
p502
aV     268 SearchFilterHo       0x0000000000371320 PROCESSOR_ARCHITECTURE         AMD64
p503
aV     268 SearchFilterHo       0x0000000000371320 PROCESSOR_IDENTIFIER           Intel64 Family 6 Model 6 Stepping 3, GenuineIntel
p504
aV     268 SearchFilterHo       0x0000000000371320 PROCESSOR_LEVEL                6
p505
aV     268 SearchFilterHo       0x0000000000371320 PROCESSOR_REVISION             0603
p506
aV     268 SearchFilterHo       0x0000000000371320 ProgramData                    C:\u005cProgramData
p507
aV     268 SearchFilterHo       0x0000000000371320 ProgramFiles                   C:\u005cProgram Files
p508
aV     268 SearchFilterHo       0x0000000000371320 ProgramFiles(x86)              C:\u005cProgram Files (x86)
p509
aV     268 SearchFilterHo       0x0000000000371320 ProgramW6432                   C:\u005cProgram Files
p510
aV     268 SearchFilterHo       0x0000000000371320 PSModulePath                   C:\u005cWindows\u005csystem32\u005cWindowsPowerShell\u005cv1.0\u005cModules\u005c
p511
aV     268 SearchFilterHo       0x0000000000371320 PUBLIC                         C:\u005cUsers\u005cPublic
p512
aV     268 SearchFilterHo       0x0000000000371320 SystemDrive                    C:
p513
aV     268 SearchFilterHo       0x0000000000371320 SystemRoot                     C:\u005cWindows
p514
aV     268 SearchFilterHo       0x0000000000371320 TEMP                           C:\u005cProgramData\u005cMicrosoft\u005cSearch\u005cData\u005cTemp\u005cusgthrsvc
p515
aV     268 SearchFilterHo       0x0000000000371320 TMP                            C:\u005cProgramData\u005cMicrosoft\u005cSearch\u005cData\u005cTemp\u005cusgthrsvc
p516
aV     268 SearchFilterHo       0x0000000000371320 USERDOMAIN                     WORKGROUP
p517
aV     268 SearchFilterHo       0x0000000000371320 USERNAME                       LOPHI-PC$
p518
aV     268 SearchFilterHo       0x0000000000371320 USERPROFILE                    C:\u005cWindows\u005csystem32\u005cconfig\u005csystemprofile
p519
aV     268 SearchFilterHo       0x0000000000371320 windir                         C:\u005cWindows
p520
aV    2052 SearchProtocol       0x00000000003f1320 ALLUSERSPROFILE                C:\u005cProgramData
p521
aV    2052 SearchProtocol       0x00000000003f1320 APPDATA                        C:\u005cWindows\u005csystem32\u005cconfig\u005csystemprofile\u005cAppData\u005cRoaming
p522
aV    2052 SearchProtocol       0x00000000003f1320 CommonProgramFiles             C:\u005cProgram Files\u005cCommon Files
p523
aV    2052 SearchProtocol       0x00000000003f1320 CommonProgramFiles(x86)        C:\u005cProgram Files (x86)\u005cCommon Files
p524
aV    2052 SearchProtocol       0x00000000003f1320 CommonProgramW6432             C:\u005cProgram Files\u005cCommon Files
p525
aV    2052 SearchProtocol       0x00000000003f1320 COMPUTERNAME                   LOPHI-PC
p526
aV    2052 SearchProtocol       0x00000000003f1320 ComSpec                        C:\u005cWindows\u005csystem32\u005ccmd.exe
p527
aV    2052 SearchProtocol       0x00000000003f1320 FP_NO_HOST_CHECK               NO
p528
aV    2052 SearchProtocol       0x00000000003f1320 LOCALAPPDATA                   C:\u005cWindows\u005csystem32\u005cconfig\u005csystemprofile\u005cAppData\u005cLocal
p529
aV    2052 SearchProtocol       0x00000000003f1320 NUMBER_OF_PROCESSORS           1
p530
aV    2052 SearchProtocol       0x00000000003f1320 OS                             Windows_NT
p531
aV    2052 SearchProtocol       0x00000000003f1320 Path                           C:\u005cWindows\u005csystem32;C:\u005cWindows;C:\u005cWindows\u005cSystem32\u005cWbem;C:\u005cWindows\u005cSystem32\u005cWindowsPowerShell\u005cv1.0\u005c;C:\u005cPython27;C:\u005cWindows\u005csystem32
p532
aV    2052 SearchProtocol       0x00000000003f1320 PATHEXT                        .COM;.EXE;.BAT;.CMD;.VBS;.VBE;.JS;.JSE;.WSF;.WSH;.MSC
p533
aV    2052 SearchProtocol       0x00000000003f1320 PROCESSOR_ARCHITECTURE         AMD64
p534
aV    2052 SearchProtocol       0x00000000003f1320 PROCESSOR_IDENTIFIER           Intel64 Family 6 Model 6 Stepping 3, GenuineIntel
p535
aV    2052 SearchProtocol       0x00000000003f1320 PROCESSOR_LEVEL                6
p536
aV    2052 SearchProtocol       0x00000000003f1320 PROCESSOR_REVISION             0603
p537
aV    2052 SearchProtocol       0x00000000003f1320 ProgramData                    C:\u005cProgramData
p538
aV    2052 SearchProtocol       0x00000000003f1320 ProgramFiles                   C:\u005cProgram Files
p539
aV    2052 SearchProtocol       0x00000000003f1320 ProgramFiles(x86)              C:\u005cProgram Files (x86)
p540
aV    2052 SearchProtocol       0x00000000003f1320 ProgramW6432                   C:\u005cProgram Files
p541
aV    2052 SearchProtocol       0x00000000003f1320 PSModulePath                   C:\u005cWindows\u005csystem32\u005cWindowsPowerShell\u005cv1.0\u005cModules\u005c
p542
aV    2052 SearchProtocol       0x00000000003f1320 PUBLIC                         C:\u005cUsers\u005cPublic
p543
aV    2052 SearchProtocol       0x00000000003f1320 SystemDrive                    C:
p544
aV    2052 SearchProtocol       0x00000000003f1320 SystemRoot                     C:\u005cWindows
p545
aV    2052 SearchProtocol       0x00000000003f1320 TEMP                           C:\u005cProgramData\u005cMicrosoft\u005cSearch\u005cData\u005cTemp\u005cusgthrsvc
p546
aV    2052 SearchProtocol       0x00000000003f1320 TMP                            C:\u005cProgramData\u005cMicrosoft\u005cSearch\u005cData\u005cTemp\u005cusgthrsvc
p547
aV    2052 SearchProtocol       0x00000000003f1320 USERDOMAIN                     WORKGROUP
p548
aV    2052 SearchProtocol       0x00000000003f1320 USERNAME                       LOPHI-PC$
p549
aV    2052 SearchProtocol       0x00000000003f1320 USERPROFILE                    C:\u005cWindows\u005csystem32\u005cconfig\u005csystemprofile
p550
aV    2052 SearchProtocol       0x00000000003f1320 windir                         C:\u005cWindows
p551
aV    2304 cmd.exe              0x000000000007c2c0 ALLUSERSPROFILE                C:\u005cProgramData
p552
aV    2304 cmd.exe              0x000000000007c2c0 APPDATA                        C:\u005cUsers\u005clophi\u005cAppData\u005cRoaming
p553
aV    2304 cmd.exe              0x000000000007c2c0 CommonProgramFiles             C:\u005cProgram Files\u005cCommon Files
p554
aV    2304 cmd.exe              0x000000000007c2c0 CommonProgramFiles(x86)        C:\u005cProgram Files (x86)\u005cCommon Files
p555
aV    2304 cmd.exe              0x000000000007c2c0 CommonProgramW6432             C:\u005cProgram Files\u005cCommon Files
p556
aV    2304 cmd.exe              0x000000000007c2c0 COMPUTERNAME                   LOPHI-PC
p557
aV    2304 cmd.exe              0x000000000007c2c0 ComSpec                        C:\u005cWindows\u005csystem32\u005ccmd.exe
p558
aV    2304 cmd.exe              0x000000000007c2c0 FP_NO_HOST_CHECK               NO
p559
aV    2304 cmd.exe              0x000000000007c2c0 HOMEDRIVE                      C:
p560
aV    2304 cmd.exe              0x000000000007c2c0 HOMEPATH                       \u005cUsers\u005clophi
p561
aV    2304 cmd.exe              0x000000000007c2c0 LOCALAPPDATA                   C:\u005cUsers\u005clophi\u005cAppData\u005cLocal
p562
aV    2304 cmd.exe              0x000000000007c2c0 LOGONSERVER                    \u005c\u005cLOPHI-PC
p563
aV    2304 cmd.exe              0x000000000007c2c0 NUMBER_OF_PROCESSORS           1
p564
aV    2304 cmd.exe              0x000000000007c2c0 OS                             Windows_NT
p565
aV    2304 cmd.exe              0x000000000007c2c0 Path                           C:\u005cWindows\u005csystem32;C:\u005cWindows;C:\u005cWindows\u005cSystem32\u005cWbem;C:\u005cWindows\u005cSystem32\u005cWindowsPowerShell\u005cv1.0\u005c;C:\u005cPython27
p566
aV    2304 cmd.exe              0x000000000007c2c0 PATHEXT                        .COM;.EXE;.BAT;.CMD;.VBS;.VBE;.JS;.JSE;.WSF;.WSH;.MSC
p567
aV    2304 cmd.exe              0x000000000007c2c0 PROCESSOR_ARCHITECTURE         AMD64
p568
aV    2304 cmd.exe              0x000000000007c2c0 PROCESSOR_IDENTIFIER           Intel64 Family 6 Model 6 Stepping 3, GenuineIntel
p569
aV    2304 cmd.exe              0x000000000007c2c0 PROCESSOR_LEVEL                6
p570
aV    2304 cmd.exe              0x000000000007c2c0 PROCESSOR_REVISION             0603
p571
aV    2304 cmd.exe              0x000000000007c2c0 ProgramData                    C:\u005cProgramData
p572
aV    2304 cmd.exe              0x000000000007c2c0 ProgramFiles                   C:\u005cProgram Files
p573
aV    2304 cmd.exe              0x000000000007c2c0 ProgramFiles(x86)              C:\u005cProgram Files (x86)
p574
aV    2304 cmd.exe              0x000000000007c2c0 ProgramW6432                   C:\u005cProgram Files
p575
aV    2304 cmd.exe              0x000000000007c2c0 PROMPT                         $P$G
p576
aV    2304 cmd.exe              0x000000000007c2c0 PSModulePath                   C:\u005cWindows\u005csystem32\u005cWindowsPowerShell\u005cv1.0\u005cModules\u005c
p577
aV    2304 cmd.exe              0x000000000007c2c0 PUBLIC                         C:\u005cUsers\u005cPublic
p578
aV    2304 cmd.exe              0x000000000007c2c0 SESSIONNAME                    Console
p579
aV    2304 cmd.exe              0x000000000007c2c0 SystemDrive                    C:
p580
aV    2304 cmd.exe              0x000000000007c2c0 SystemRoot                     C:\u005cWindows
p581
aV    2304 cmd.exe              0x000000000007c2c0 TEMP                           C:\u005cUsers\u005clophi\u005cAppData\u005cLocal\u005cTemp
p582
aV    2304 cmd.exe              0x000000000007c2c0 TMP                            C:\u005cUsers\u005clophi\u005cAppData\u005cLocal\u005cTemp
p583
aV    2304 cmd.exe              0x000000000007c2c0 USERDOMAIN                     lophi-PC
p584
aV    2304 cmd.exe              0x000000000007c2c0 USERNAME                       lophi
p585
aV    2304 cmd.exe              0x000000000007c2c0 USERPROFILE                    C:\u005cUsers\u005clophi
p586
aV    2304 cmd.exe              0x000000000007c2c0 windir                         C:\u005cWindows
p587
aV    2312 conhost.exe          0x000000000032d7a0 CommonProgramFiles             C:\u005cProgram Files\u005cCommon Files
p588
aV    2312 conhost.exe          0x000000000032d7a0 CommonProgramFiles(x86)        C:\u005cProgram Files (x86)\u005cCommon Files
p589
aV    2312 conhost.exe          0x000000000032d7a0 CommonProgramW6432             C:\u005cProgram Files\u005cCommon Files
p590
aV    2312 conhost.exe          0x000000000032d7a0 ComSpec                        C:\u005cWindows\u005csystem32\u005ccmd.exe
p591
aV    2312 conhost.exe          0x000000000032d7a0 FP_NO_HOST_CHECK               NO
p592
aV    2312 conhost.exe          0x000000000032d7a0 NUMBER_OF_PROCESSORS           1
p593
aV    2312 conhost.exe          0x000000000032d7a0 OS                             Windows_NT
p594
aV    2312 conhost.exe          0x000000000032d7a0 Path                           C:\u005cWindows\u005csystem32;C:\u005cWindows;C:\u005cWindows\u005cSystem32\u005cWbem;C:\u005cWindows\u005cSystem32\u005cWindowsPowerShell\u005cv1.0\u005c;C:\u005cPython27
p595
aV    2312 conhost.exe          0x000000000032d7a0 PATHEXT                        .COM;.EXE;.BAT;.CMD;.VBS;.VBE;.JS;.JSE;.WSF;.WSH;.MSC
p596
aV    2312 conhost.exe          0x000000000032d7a0 PROCESSOR_ARCHITECTURE         AMD64
p597
aV    2312 conhost.exe          0x000000000032d7a0 PROCESSOR_IDENTIFIER           Intel64 Family 6 Model 6 Stepping 3, GenuineIntel
p598
aV    2312 conhost.exe          0x000000000032d7a0 PROCESSOR_LEVEL                6
p599
aV    2312 conhost.exe          0x000000000032d7a0 PROCESSOR_REVISION             0603
p600
aV    2312 conhost.exe          0x000000000032d7a0 ProgramFiles                   C:\u005cProgram Files
p601
aV    2312 conhost.exe          0x000000000032d7a0 ProgramFiles(x86)              C:\u005cProgram Files (x86)
p602
aV    2312 conhost.exe          0x000000000032d7a0 ProgramW6432                   C:\u005cProgram Files
p603
aV    2312 conhost.exe          0x000000000032d7a0 PSModulePath                   C:\u005cWindows\u005csystem32\u005cWindowsPowerShell\u005cv1.0\u005cModules\u005c
p604
aV    2312 conhost.exe          0x000000000032d7a0 SystemDrive                    C:
p605
aV    2312 conhost.exe          0x000000000032d7a0 SystemRoot                     C:\u005cWindows
p606
aV    2312 conhost.exe          0x000000000032d7a0 TEMP                           C:\u005cWindows\u005cTEMP
p607
aV    2312 conhost.exe          0x000000000032d7a0 TMP                            C:\u005cWindows\u005cTEMP
p608
aV    2312 conhost.exe          0x000000000032d7a0 USERNAME                       SYSTEM
p609
aV    2312 conhost.exe          0x000000000032d7a0 windir                         C:\u005cWindows
p610
asVAdded Entries
p611
(lp612
V    3016 slui.exe             0x00000000001a1320 ALLUSERSPROFILE                C:\u005cProgramData
p613
aV    3016 slui.exe             0x00000000001a1320 APPDATA                        C:\u005cUsers\u005clophi\u005cAppData\u005cRoaming
p614
aV    3016 slui.exe             0x00000000001a1320 CommonProgramFiles             C:\u005cProgram Files\u005cCommon Files
p615
aV    3016 slui.exe             0x00000000001a1320 CommonProgramFiles(x86)        C:\u005cProgram Files (x86)\u005cCommon Files
p616
aV    3016 slui.exe             0x00000000001a1320 CommonProgramW6432             C:\u005cProgram Files\u005cCommon Files
p617
aV    3016 slui.exe             0x00000000001a1320 COMPUTERNAME                   LOPHI-PC
p618
aV    3016 slui.exe             0x00000000001a1320 ComSpec                        C:\u005cWindows\u005csystem32\u005ccmd.exe
p619
aV    3016 slui.exe             0x00000000001a1320 FP_NO_HOST_CHECK               NO
p620
aV    3016 slui.exe             0x00000000001a1320 HOMEDRIVE                      C:
p621
aV    3016 slui.exe             0x00000000001a1320 HOMEPATH                       \u005cUsers\u005clophi
p622
aV    3016 slui.exe             0x00000000001a1320 LOCALAPPDATA                   C:\u005cUsers\u005clophi\u005cAppData\u005cLocal
p623
aV    3016 slui.exe             0x00000000001a1320 LOGONSERVER                    \u005c\u005cLOPHI-PC
p624
aV    3016 slui.exe             0x00000000001a1320 NUMBER_OF_PROCESSORS           1
p625
aV    3016 slui.exe             0x00000000001a1320 OS                             Windows_NT
p626
aV    3016 slui.exe             0x00000000001a1320 Path                           C:\u005cWindows\u005csystem32;C:\u005cWindows;C:\u005cWindows\u005cSystem32\u005cWbem;C:\u005cWindows\u005cSystem32\u005cWindowsPowerShell\u005cv1.0\u005c;C:\u005cPython27
p627
aV    3016 slui.exe             0x00000000001a1320 PATHEXT                        .COM;.EXE;.BAT;.CMD;.VBS;.VBE;.JS;.JSE;.WSF;.WSH;.MSC
p628
aV    3016 slui.exe             0x00000000001a1320 PROCESSOR_ARCHITECTURE         AMD64
p629
aV    3016 slui.exe             0x00000000001a1320 PROCESSOR_IDENTIFIER           Intel64 Family 6 Model 6 Stepping 3, GenuineIntel
p630
aV    3016 slui.exe             0x00000000001a1320 PROCESSOR_LEVEL                6
p631
aV    3016 slui.exe             0x00000000001a1320 PROCESSOR_REVISION             0603
p632
aV    3016 slui.exe             0x00000000001a1320 ProgramData                    C:\u005cProgramData
p633
aV    3016 slui.exe             0x00000000001a1320 ProgramFiles                   C:\u005cProgram Files
p634
aV    3016 slui.exe             0x00000000001a1320 ProgramFiles(x86)              C:\u005cProgram Files (x86)
p635
aV    3016 slui.exe             0x00000000001a1320 ProgramW6432                   C:\u005cProgram Files
p636
aV    3016 slui.exe             0x00000000001a1320 PSModulePath                   C:\u005cWindows\u005csystem32\u005cWindowsPowerShell\u005cv1.0\u005cModules\u005c
p637
aV    3016 slui.exe             0x00000000001a1320 PUBLIC                         C:\u005cUsers\u005cPublic
p638
aV    3016 slui.exe             0x00000000001a1320 SystemDrive                    C:
p639
aV    3016 slui.exe             0x00000000001a1320 SystemRoot                     C:\u005cWindows
p640
aV    3016 slui.exe             0x00000000001a1320 TEMP                           C:\u005cUsers\u005clophi\u005cAppData\u005cLocal\u005cTemp
p641
aV    3016 slui.exe             0x00000000001a1320 TMP                            C:\u005cUsers\u005clophi\u005cAppData\u005cLocal\u005cTemp
p642
aV    3016 slui.exe             0x00000000001a1320 USERDOMAIN                     lophi-PC
p643
aV    3016 slui.exe             0x00000000001a1320 USERNAME                       lophi
p644
aV    3016 slui.exe             0x00000000001a1320 USERPROFILE                    C:\u005cUsers\u005clophi
p645
aV    3016 slui.exe             0x00000000001a1320 windir                         C:\u005cWindows
p646
aV    1404 WmiPrvSE.exe         0x0000000000341320 ALLUSERSPROFILE                C:\u005cProgramData
p647
aV    1404 WmiPrvSE.exe         0x0000000000341320 APPDATA                        C:\u005cWindows\u005csystem32\u005cconfig\u005csystemprofile\u005cAppData\u005cRoaming
p648
aV    1404 WmiPrvSE.exe         0x0000000000341320 CommonProgramFiles             C:\u005cProgram Files\u005cCommon Files
p649
aV    1404 WmiPrvSE.exe         0x0000000000341320 CommonProgramFiles(x86)        C:\u005cProgram Files (x86)\u005cCommon Files
p650
aV    1404 WmiPrvSE.exe         0x0000000000341320 CommonProgramW6432             C:\u005cProgram Files\u005cCommon Files
p651
aV    1404 WmiPrvSE.exe         0x0000000000341320 COMPUTERNAME                   LOPHI-PC
p652
aV    1404 WmiPrvSE.exe         0x0000000000341320 ComSpec                        C:\u005cWindows\u005csystem32\u005ccmd.exe
p653
aV    1404 WmiPrvSE.exe         0x0000000000341320 FP_NO_HOST_CHECK               NO
p654
aV    1404 WmiPrvSE.exe         0x0000000000341320 LOCALAPPDATA                   C:\u005cWindows\u005csystem32\u005cconfig\u005csystemprofile\u005cAppData\u005cLocal
p655
aV    1404 WmiPrvSE.exe         0x0000000000341320 NUMBER_OF_PROCESSORS           1
p656
aV    1404 WmiPrvSE.exe         0x0000000000341320 OS                             Windows_NT
p657
aV    1404 WmiPrvSE.exe         0x0000000000341320 Path                           C:\u005cWindows\u005csystem32;C:\u005cWindows;C:\u005cWindows\u005cSystem32\u005cWbem;C:\u005cWindows\u005cSystem32\u005cWindowsPowerShell\u005cv1.0\u005c;C:\u005cPython27
p658
aV    1404 WmiPrvSE.exe         0x0000000000341320 PATHEXT                        .COM;.EXE;.BAT;.CMD;.VBS;.VBE;.JS;.JSE;.WSF;.WSH;.MSC
p659
aV    1404 WmiPrvSE.exe         0x0000000000341320 PROCESSOR_ARCHITECTURE         AMD64
p660
aV    1404 WmiPrvSE.exe         0x0000000000341320 PROCESSOR_IDENTIFIER           Intel64 Family 6 Model 6 Stepping 3, GenuineIntel
p661
aV    1404 WmiPrvSE.exe         0x0000000000341320 PROCESSOR_LEVEL                6
p662
aV    1404 WmiPrvSE.exe         0x0000000000341320 PROCESSOR_REVISION             0603
p663
aV    1404 WmiPrvSE.exe         0x0000000000341320 ProgramData                    C:\u005cProgramData
p664
aV    1404 WmiPrvSE.exe         0x0000000000341320 ProgramFiles                   C:\u005cProgram Files
p665
aV    1404 WmiPrvSE.exe         0x0000000000341320 ProgramFiles(x86)              C:\u005cProgram Files (x86)
p666
aV    1404 WmiPrvSE.exe         0x0000000000341320 ProgramW6432                   C:\u005cProgram Files
p667
aV    1404 WmiPrvSE.exe         0x0000000000341320 PSModulePath                   C:\u005cWindows\u005csystem32\u005cWindowsPowerShell\u005cv1.0\u005cModules\u005c
p668
aV    1404 WmiPrvSE.exe         0x0000000000341320 PUBLIC                         C:\u005cUsers\u005cPublic
p669
aV    1404 WmiPrvSE.exe         0x0000000000341320 SystemDrive                    C:
p670
aV    1404 WmiPrvSE.exe         0x0000000000341320 SystemRoot                     C:\u005cWindows
p671
aV    1404 WmiPrvSE.exe         0x0000000000341320 TEMP                           C:\u005cWindows\u005cTEMP
p672
aV    1404 WmiPrvSE.exe         0x0000000000341320 TMP                            C:\u005cWindows\u005cTEMP
p673
aV    1404 WmiPrvSE.exe         0x0000000000341320 USERDOMAIN                     WORKGROUP
p674
aV    1404 WmiPrvSE.exe         0x0000000000341320 USERNAME                       LOPHI-PC$
p675
aV    1404 WmiPrvSE.exe         0x0000000000341320 USERPROFILE                    C:\u005cWindows\u005csystem32\u005cconfig\u005csystemprofile
p676
aV    1404 WmiPrvSE.exe         0x0000000000341320 windir                         C:\u005cWindows
p677
assVpsxview
p678
(dp679
VRemoved Entries
p680
(lp681
V0x000000003e8a5580 reader_sl.exe          1360 True   True   True     True   True  True    True    
p682
aV0x000000003ff63b30 wininit.exe             372 True   True   True     True   True  True    False   
p683
aV0x000000003edba820 svchost.exe             588 True   True   True     True   True  True    False   
p684
aV0x000000003e75ab30 SearchIndexer.         1308 True   True   True     True   True  True    False   
p685
aV0x000000003e7cab30 SearchFilterHo          268 True   True   True     True   True  True    True    
p686
aV0x000000003e9ab8d0 conhost.exe            2312 True   True   True     True   True  True    True    
p687
aV0x000000003e92ab30 svchost.exe            1904 True   True   True     True   True  True    False   
p688
aV0x000000003e7cdb30 SearchProtocol         2052 True   True   True     True   True  True    False   
p689
aV0x000000003e62eb30 GoogleUpdate.e         1280 True   True   True     True   True  True    False   
p690
aV0x000000003ea90060 audiodg.exe             924 True   True   True     True   True  True    False   
p691
aV0x000000003e9145d0 svchost.exe            1536 True   True   True     True   True  True    False   
p692
aV0x000000003ed37b30 svchost.exe             652 True   True   True     True   True  True    False   
p693
aV0x000000003ea09730 svchost.exe             704 True   True   True     True   True  True    False   
p694
aV0x000000003e81f3e0 cmd.exe                2304 True   True   True     True   True  True    True    
p695
aV0x000000003ea66a70 taskeng.exe            1376 True   True   True     True   True  True    False   
p696
aV0x000000003eac2060 svchost.exe            1004 True   True   True     True   True  True    False   
p697
aV0x000000003eb11ab0 svchost.exe             528 True   True   True     True   True  True    False   
p698
aV0x000000003e81bb30 svchost.exe            1220 True   True   True     True   True  True    False   
p699
aV0x000000003eccf280 csrss.exe               324 True   True   True     True   False True    False   
p700
aV0x000000003fe2f060 sppsvc.exe             2752 True   True   True     False  False True    False   
p701
aV0x000000003feccb30 svchost.exe            2780 True   True   True     False  False True    False   
p702
aV0x0000000020ee1630 SearchProtocol          680 False  True   False    False  False False   False   
p703
asVAdded Entries
p704
(lp705
V0x000000003ff63b30 wininit.exe             372 True   True   True     True   True  True    True    
p706
aV0x000000003fc02b30 slui.exe               3016 True   True   True     True   True  True    True    
p707
aV0x000000003edba820 svchost.exe             588 True   True   True     True   True  True    True    
p708
aV0x000000003e75ab30 SearchIndexer.         1308 True   True   True     True   True  True    True    
p709
aV0x000000003e92ab30 svchost.exe            1904 True   True   True     True   True  True    True    
p710
aV0x000000003fe2f060 sppsvc.exe             2752 True   True   True     True   True  True    True    
p711
aV0x000000003feccb30 svchost.exe            2780 True   True   True     True   True  True    False   
p712
aV0x000000003ea90060 audiodg.exe             924 True   True   True     True   True  True    True    
p713
aV0x000000003e9145d0 svchost.exe            1536 True   True   True     True   True  True    True    
p714
aV0x000000003ed37b30 svchost.exe             652 True   True   True     True   True  True    True    
p715
aV0x000000003ea09730 svchost.exe             704 True   True   True     True   True  True    True    
p716
aV0x000000003fc65b30 WmiPrvSE.exe           1404 True   True   True     True   True  True    True    
p717
aV0x000000003e81bb30 svchost.exe            1220 True   True   True     True   True  True    True    
p718
aV0x000000003ea66a70 taskeng.exe            1376 True   True   True     True   True  True    True    
p719
aV0x000000003eac2060 svchost.exe            1004 True   True   True     True   True  True    True    
p720
aV0x000000003eb11ab0 svchost.exe             528 True   True   True     True   True  True    True    
p721
aV0x000000003e62eb30 GoogleUpdate.e         1280 True   True   True     True   True  True    True    
p722
aV0x000000003eccf280 csrss.exe               324 True   True   True     True   False True    True    
p723
assVpsscan
p724
(dp725
VRemoved Entries
p726
(lp727
V0x0000fa800221f3e0 cmd.exe            2304   1080 0x000000003c86d000 2015-08-15 20:13:18 UTC+0000                                 
p728
aV0x0000fa80022a5580 reader_sl.exe      1360   1304 0x000000000dcc7000 2015-08-15 20:12:08 UTC+0000                                 
p729
aV0x0000fa80023ab8d0 conhost.exe        2312    384 0x000000003cb7f000 2015-08-15 20:13:18 UTC+0000                                 
p730
aV0x0000fa80025cab30 SearchFilterHo      268   1308 0x0000000009b2c000 2015-08-15 20:12:13 UTC+0000                                 
p731
aV0x0000fa80025cdb30 SearchProtocol     2052   1308 0x0000000009ab7000 2015-08-15 20:12:14 UTC+0000                                 
p732
aV0x0000fa8009773630 SearchProtocol      680   1308 0x0000000009768000 2015-08-15 20:12:13 UTC+0000   2015-08-15 20:13:19 UTC+0000  
p733
asVAdded Entries
p734
(lp735
V0x0000fa8000e02b30 slui.exe           3016    588 0x0000000033c8e000 2015-08-15 20:14:55 UTC+0000                                 
p736
aV0x0000fa8000e65b30 WmiPrvSE.exe       1404    588 0x0000000032909000 2015-08-15 20:16:08 UTC+0000                                 
p737
assVdriverirp
p738
(dp739
sVssdt
p740
(dp741
VRemoved Entries
p742
(lp743
sVAdded Entries
p744
(lp745
ss.